
my1004c.elf:     file format elf32-littlearm

Sections:
Idx Name          Size      VMA       LMA       File off  Algn
  0 .isr_vector   000000c0  08000000  08000000  00001000  2**0
                  CONTENTS, ALLOC, LOAD, READONLY, DATA
  1 .default_config_page 00000068  08000100  08000100  00001100  2**8
                  CONTENTS, ALLOC, LOAD, READONLY, DATA
  2 .fconfig_page 00000100  08080000  08080000  00008000  2**8
                  ALLOC
  3 .text         00004d2c  08000168  08000168  00001168  2**2
                  CONTENTS, ALLOC, LOAD, READONLY, CODE
  4 .rodata       000007d4  08004e94  08004e94  00005e94  2**2
                  CONTENTS, ALLOC, LOAD, READONLY, DATA
  5 .ARM.extab    00000000  08005668  08005668  00007064  2**0
                  CONTENTS, READONLY
  6 .ARM          00000000  08005668  08005668  00007064  2**0
                  CONTENTS, READONLY
  7 .preinit_array 00000000  08005668  08005668  00007064  2**0
                  CONTENTS, ALLOC, LOAD, DATA
  8 .init_array   00000004  08005668  08005668  00006668  2**2
                  CONTENTS, ALLOC, LOAD, READONLY, DATA
  9 .fini_array   00000004  0800566c  0800566c  0000666c  2**2
                  CONTENTS, ALLOC, LOAD, READONLY, DATA
 10 .data         00000064  20000000  08005670  00007000  2**2
                  CONTENTS, ALLOC, LOAD, DATA
 11 .bss          000004e0  20000100  080056d4  00007100  2**8
                  ALLOC
 12 ._user_heap_stack 00000600  200005e0  080056d4  000075e0  2**0
                  ALLOC
 13 .ARM.attributes 00000028  00000000  00000000  00007064  2**0
                  CONTENTS, READONLY
 14 .comment      00000043  00000000  00000000  0000708c  2**0
                  CONTENTS, READONLY
 15 .debug_frame  00000910  00000000  00000000  000070d0  2**2
                  CONTENTS, READONLY, DEBUGGING, OCTETS

Disassembly of section .text:

08000168 <__do_global_dtors_aux>:
 8000168:	b510      	push	{r4, lr}
 800016a:	4c06      	ldr	r4, [pc, #24]	@ (8000184 <__do_global_dtors_aux+0x1c>)
 800016c:	7823      	ldrb	r3, [r4, #0]
 800016e:	2b00      	cmp	r3, #0
 8000170:	d107      	bne.n	8000182 <__do_global_dtors_aux+0x1a>
 8000172:	4b05      	ldr	r3, [pc, #20]	@ (8000188 <__do_global_dtors_aux+0x20>)
 8000174:	2b00      	cmp	r3, #0
 8000176:	d002      	beq.n	800017e <__do_global_dtors_aux+0x16>
 8000178:	4804      	ldr	r0, [pc, #16]	@ (800018c <__do_global_dtors_aux+0x24>)
 800017a:	e000      	b.n	800017e <__do_global_dtors_aux+0x16>
 800017c:	bf00      	nop
 800017e:	2301      	movs	r3, #1
 8000180:	7023      	strb	r3, [r4, #0]
 8000182:	bd10      	pop	{r4, pc}
 8000184:	20000100 	.word	0x20000100
 8000188:	00000000 	.word	0x00000000
 800018c:	08004e7c 	.word	0x08004e7c

08000190 <frame_dummy>:
 8000190:	4b04      	ldr	r3, [pc, #16]	@ (80001a4 <frame_dummy+0x14>)
 8000192:	b510      	push	{r4, lr}
 8000194:	2b00      	cmp	r3, #0
 8000196:	d003      	beq.n	80001a0 <frame_dummy+0x10>
 8000198:	4903      	ldr	r1, [pc, #12]	@ (80001a8 <frame_dummy+0x18>)
 800019a:	4804      	ldr	r0, [pc, #16]	@ (80001ac <frame_dummy+0x1c>)
 800019c:	e000      	b.n	80001a0 <frame_dummy+0x10>
 800019e:	bf00      	nop
 80001a0:	bd10      	pop	{r4, pc}
 80001a2:	46c0      	nop			@ (mov r8, r8)
 80001a4:	00000000 	.word	0x00000000
 80001a8:	20000104 	.word	0x20000104
 80001ac:	08004e7c 	.word	0x08004e7c

080001b0 <strcmp>:
 80001b0:	7802      	ldrb	r2, [r0, #0]
 80001b2:	780b      	ldrb	r3, [r1, #0]
 80001b4:	2a00      	cmp	r2, #0
 80001b6:	d003      	beq.n	80001c0 <strcmp+0x10>
 80001b8:	3001      	adds	r0, #1
 80001ba:	3101      	adds	r1, #1
 80001bc:	429a      	cmp	r2, r3
 80001be:	d0f7      	beq.n	80001b0 <strcmp>
 80001c0:	1ad0      	subs	r0, r2, r3
 80001c2:	4770      	bx	lr

080001c4 <strlen>:
 80001c4:	2300      	movs	r3, #0
 80001c6:	5cc2      	ldrb	r2, [r0, r3]
 80001c8:	3301      	adds	r3, #1
 80001ca:	2a00      	cmp	r2, #0
 80001cc:	d1fb      	bne.n	80001c6 <strlen+0x2>
 80001ce:	1e58      	subs	r0, r3, #1
 80001d0:	4770      	bx	lr
	...

080001d4 <__gnu_thumb1_case_shi>:
 80001d4:	b403      	push	{r0, r1}
 80001d6:	4671      	mov	r1, lr
 80001d8:	0849      	lsrs	r1, r1, #1
 80001da:	0040      	lsls	r0, r0, #1
 80001dc:	0049      	lsls	r1, r1, #1
 80001de:	5e09      	ldrsh	r1, [r1, r0]
 80001e0:	0049      	lsls	r1, r1, #1
 80001e2:	448e      	add	lr, r1
 80001e4:	bc03      	pop	{r0, r1}
 80001e6:	4770      	bx	lr

080001e8 <__udivsi3>:
 80001e8:	2200      	movs	r2, #0
 80001ea:	0843      	lsrs	r3, r0, #1
 80001ec:	428b      	cmp	r3, r1
 80001ee:	d374      	bcc.n	80002da <__udivsi3+0xf2>
 80001f0:	0903      	lsrs	r3, r0, #4
 80001f2:	428b      	cmp	r3, r1
 80001f4:	d35f      	bcc.n	80002b6 <__udivsi3+0xce>
 80001f6:	0a03      	lsrs	r3, r0, #8
 80001f8:	428b      	cmp	r3, r1
 80001fa:	d344      	bcc.n	8000286 <__udivsi3+0x9e>
 80001fc:	0b03      	lsrs	r3, r0, #12
 80001fe:	428b      	cmp	r3, r1
 8000200:	d328      	bcc.n	8000254 <__udivsi3+0x6c>
 8000202:	0c03      	lsrs	r3, r0, #16
 8000204:	428b      	cmp	r3, r1
 8000206:	d30d      	bcc.n	8000224 <__udivsi3+0x3c>
 8000208:	22ff      	movs	r2, #255	@ 0xff
 800020a:	0209      	lsls	r1, r1, #8
 800020c:	ba12      	rev	r2, r2
 800020e:	0c03      	lsrs	r3, r0, #16
 8000210:	428b      	cmp	r3, r1
 8000212:	d302      	bcc.n	800021a <__udivsi3+0x32>
 8000214:	1212      	asrs	r2, r2, #8
 8000216:	0209      	lsls	r1, r1, #8
 8000218:	d065      	beq.n	80002e6 <__udivsi3+0xfe>
 800021a:	0b03      	lsrs	r3, r0, #12
 800021c:	428b      	cmp	r3, r1
 800021e:	d319      	bcc.n	8000254 <__udivsi3+0x6c>
 8000220:	e000      	b.n	8000224 <__udivsi3+0x3c>
 8000222:	0a09      	lsrs	r1, r1, #8
 8000224:	0bc3      	lsrs	r3, r0, #15
 8000226:	428b      	cmp	r3, r1
 8000228:	d301      	bcc.n	800022e <__udivsi3+0x46>
 800022a:	03cb      	lsls	r3, r1, #15
 800022c:	1ac0      	subs	r0, r0, r3
 800022e:	4152      	adcs	r2, r2
 8000230:	0b83      	lsrs	r3, r0, #14
 8000232:	428b      	cmp	r3, r1
 8000234:	d301      	bcc.n	800023a <__udivsi3+0x52>
 8000236:	038b      	lsls	r3, r1, #14
 8000238:	1ac0      	subs	r0, r0, r3
 800023a:	4152      	adcs	r2, r2
 800023c:	0b43      	lsrs	r3, r0, #13
 800023e:	428b      	cmp	r3, r1
 8000240:	d301      	bcc.n	8000246 <__udivsi3+0x5e>
 8000242:	034b      	lsls	r3, r1, #13
 8000244:	1ac0      	subs	r0, r0, r3
 8000246:	4152      	adcs	r2, r2
 8000248:	0b03      	lsrs	r3, r0, #12
 800024a:	428b      	cmp	r3, r1
 800024c:	d301      	bcc.n	8000252 <__udivsi3+0x6a>
 800024e:	030b      	lsls	r3, r1, #12
 8000250:	1ac0      	subs	r0, r0, r3
 8000252:	4152      	adcs	r2, r2
 8000254:	0ac3      	lsrs	r3, r0, #11
 8000256:	428b      	cmp	r3, r1
 8000258:	d301      	bcc.n	800025e <__udivsi3+0x76>
 800025a:	02cb      	lsls	r3, r1, #11
 800025c:	1ac0      	subs	r0, r0, r3
 800025e:	4152      	adcs	r2, r2
 8000260:	0a83      	lsrs	r3, r0, #10
 8000262:	428b      	cmp	r3, r1
 8000264:	d301      	bcc.n	800026a <__udivsi3+0x82>
 8000266:	028b      	lsls	r3, r1, #10
 8000268:	1ac0      	subs	r0, r0, r3
 800026a:	4152      	adcs	r2, r2
 800026c:	0a43      	lsrs	r3, r0, #9
 800026e:	428b      	cmp	r3, r1
 8000270:	d301      	bcc.n	8000276 <__udivsi3+0x8e>
 8000272:	024b      	lsls	r3, r1, #9
 8000274:	1ac0      	subs	r0, r0, r3
 8000276:	4152      	adcs	r2, r2
 8000278:	0a03      	lsrs	r3, r0, #8
 800027a:	428b      	cmp	r3, r1
 800027c:	d301      	bcc.n	8000282 <__udivsi3+0x9a>
 800027e:	020b      	lsls	r3, r1, #8
 8000280:	1ac0      	subs	r0, r0, r3
 8000282:	4152      	adcs	r2, r2
 8000284:	d2cd      	bcs.n	8000222 <__udivsi3+0x3a>
 8000286:	09c3      	lsrs	r3, r0, #7
 8000288:	428b      	cmp	r3, r1
 800028a:	d301      	bcc.n	8000290 <__udivsi3+0xa8>
 800028c:	01cb      	lsls	r3, r1, #7
 800028e:	1ac0      	subs	r0, r0, r3
 8000290:	4152      	adcs	r2, r2
 8000292:	0983      	lsrs	r3, r0, #6
 8000294:	428b      	cmp	r3, r1
 8000296:	d301      	bcc.n	800029c <__udivsi3+0xb4>
 8000298:	018b      	lsls	r3, r1, #6
 800029a:	1ac0      	subs	r0, r0, r3
 800029c:	4152      	adcs	r2, r2
 800029e:	0943      	lsrs	r3, r0, #5
 80002a0:	428b      	cmp	r3, r1
 80002a2:	d301      	bcc.n	80002a8 <__udivsi3+0xc0>
 80002a4:	014b      	lsls	r3, r1, #5
 80002a6:	1ac0      	subs	r0, r0, r3
 80002a8:	4152      	adcs	r2, r2
 80002aa:	0903      	lsrs	r3, r0, #4
 80002ac:	428b      	cmp	r3, r1
 80002ae:	d301      	bcc.n	80002b4 <__udivsi3+0xcc>
 80002b0:	010b      	lsls	r3, r1, #4
 80002b2:	1ac0      	subs	r0, r0, r3
 80002b4:	4152      	adcs	r2, r2
 80002b6:	08c3      	lsrs	r3, r0, #3
 80002b8:	428b      	cmp	r3, r1
 80002ba:	d301      	bcc.n	80002c0 <__udivsi3+0xd8>
 80002bc:	00cb      	lsls	r3, r1, #3
 80002be:	1ac0      	subs	r0, r0, r3
 80002c0:	4152      	adcs	r2, r2
 80002c2:	0883      	lsrs	r3, r0, #2
 80002c4:	428b      	cmp	r3, r1
 80002c6:	d301      	bcc.n	80002cc <__udivsi3+0xe4>
 80002c8:	008b      	lsls	r3, r1, #2
 80002ca:	1ac0      	subs	r0, r0, r3
 80002cc:	4152      	adcs	r2, r2
 80002ce:	0843      	lsrs	r3, r0, #1
 80002d0:	428b      	cmp	r3, r1
 80002d2:	d301      	bcc.n	80002d8 <__udivsi3+0xf0>
 80002d4:	004b      	lsls	r3, r1, #1
 80002d6:	1ac0      	subs	r0, r0, r3
 80002d8:	4152      	adcs	r2, r2
 80002da:	1a41      	subs	r1, r0, r1
 80002dc:	d200      	bcs.n	80002e0 <__udivsi3+0xf8>
 80002de:	4601      	mov	r1, r0
 80002e0:	4152      	adcs	r2, r2
 80002e2:	4610      	mov	r0, r2
 80002e4:	4770      	bx	lr
 80002e6:	e7ff      	b.n	80002e8 <__udivsi3+0x100>
 80002e8:	b501      	push	{r0, lr}
 80002ea:	2000      	movs	r0, #0
 80002ec:	f000 f806 	bl	80002fc <__aeabi_idiv0>
 80002f0:	bd02      	pop	{r1, pc}
 80002f2:	46c0      	nop			@ (mov r8, r8)

080002f4 <__aeabi_uidivmod>:
 80002f4:	2900      	cmp	r1, #0
 80002f6:	d0f7      	beq.n	80002e8 <__udivsi3+0x100>
 80002f8:	e776      	b.n	80001e8 <__udivsi3>
 80002fa:	4770      	bx	lr

080002fc <__aeabi_idiv0>:
 80002fc:	4770      	bx	lr
 80002fe:	46c0      	nop			@ (mov r8, r8)

08000300 <MX_CRC_Init>:
 8000300:	b082      	sub	sp, #8
 8000302:	4b0f      	ldr	r3, [pc, #60]	@ (8000340 <MX_CRC_Init+0x40>)
 8000304:	6b1a      	ldr	r2, [r3, #48]	@ 0x30
 8000306:	2180      	movs	r1, #128	@ 0x80
 8000308:	0149      	lsls	r1, r1, #5
 800030a:	430a      	orrs	r2, r1
 800030c:	631a      	str	r2, [r3, #48]	@ 0x30
 800030e:	6b1b      	ldr	r3, [r3, #48]	@ 0x30
 8000310:	400b      	ands	r3, r1
 8000312:	9301      	str	r3, [sp, #4]
 8000314:	9b01      	ldr	r3, [sp, #4]
 8000316:	4b0b      	ldr	r3, [pc, #44]	@ (8000344 <MX_CRC_Init+0x44>)
 8000318:	689a      	ldr	r2, [r3, #8]
 800031a:	2160      	movs	r1, #96	@ 0x60
 800031c:	438a      	bics	r2, r1
 800031e:	609a      	str	r2, [r3, #8]
 8000320:	689a      	ldr	r2, [r3, #8]
 8000322:	3120      	adds	r1, #32
 8000324:	438a      	bics	r2, r1
 8000326:	609a      	str	r2, [r3, #8]
 8000328:	4a07      	ldr	r2, [pc, #28]	@ (8000348 <MX_CRC_Init+0x48>)
 800032a:	615a      	str	r2, [r3, #20]
 800032c:	689a      	ldr	r2, [r3, #8]
 800032e:	3968      	subs	r1, #104	@ 0x68
 8000330:	438a      	bics	r2, r1
 8000332:	609a      	str	r2, [r3, #8]
 8000334:	2201      	movs	r2, #1
 8000336:	4252      	negs	r2, r2
 8000338:	611a      	str	r2, [r3, #16]
 800033a:	b002      	add	sp, #8
 800033c:	4770      	bx	lr
 800033e:	46c0      	nop			@ (mov r8, r8)
 8000340:	40021000 	.word	0x40021000
 8000344:	40023000 	.word	0x40023000
 8000348:	04c11db7 	.word	0x04c11db7

0800034c <MX_IWDG_Init>:
 800034c:	4b0b      	ldr	r3, [pc, #44]	@ (800037c <MX_IWDG_Init+0x30>)
 800034e:	4a0c      	ldr	r2, [pc, #48]	@ (8000380 <MX_IWDG_Init+0x34>)
 8000350:	601a      	str	r2, [r3, #0]
 8000352:	4a0c      	ldr	r2, [pc, #48]	@ (8000384 <MX_IWDG_Init+0x38>)
 8000354:	601a      	str	r2, [r3, #0]
 8000356:	2200      	movs	r2, #0
 8000358:	605a      	str	r2, [r3, #4]
 800035a:	4a0b      	ldr	r2, [pc, #44]	@ (8000388 <MX_IWDG_Init+0x3c>)
 800035c:	609a      	str	r2, [r3, #8]
 800035e:	e002      	b.n	8000366 <MX_IWDG_Init+0x1a>
 8000360:	2300      	movs	r3, #0
 8000362:	2b01      	cmp	r3, #1
 8000364:	d005      	beq.n	8000372 <MX_IWDG_Init+0x26>
 8000366:	4b05      	ldr	r3, [pc, #20]	@ (800037c <MX_IWDG_Init+0x30>)
 8000368:	68db      	ldr	r3, [r3, #12]
 800036a:	075b      	lsls	r3, r3, #29
 800036c:	d1f8      	bne.n	8000360 <MX_IWDG_Init+0x14>
 800036e:	2301      	movs	r3, #1
 8000370:	e7f7      	b.n	8000362 <MX_IWDG_Init+0x16>
 8000372:	4b02      	ldr	r3, [pc, #8]	@ (800037c <MX_IWDG_Init+0x30>)
 8000374:	4a05      	ldr	r2, [pc, #20]	@ (800038c <MX_IWDG_Init+0x40>)
 8000376:	601a      	str	r2, [r3, #0]
 8000378:	4770      	bx	lr
 800037a:	46c0      	nop			@ (mov r8, r8)
 800037c:	40003000 	.word	0x40003000
 8000380:	0000cccc 	.word	0x0000cccc
 8000384:	00005555 	.word	0x00005555
 8000388:	00000fff 	.word	0x00000fff
 800038c:	0000aaaa 	.word	0x0000aaaa

08000390 <MX_GPIO_Init>:
 8000390:	b5f0      	push	{r4, r5, r6, r7, lr}
 8000392:	46de      	mov	lr, fp
 8000394:	4657      	mov	r7, sl
 8000396:	464e      	mov	r6, r9
 8000398:	4645      	mov	r5, r8
 800039a:	b5e0      	push	{r5, r6, r7, lr}
 800039c:	b08b      	sub	sp, #44	@ 0x2c
 800039e:	af08      	add	r7, sp, #32
 80003a0:	2208      	movs	r2, #8
 80003a2:	2100      	movs	r1, #0
 80003a4:	0038      	movs	r0, r7
 80003a6:	f003 fceb 	bl	8003d80 <memset>
 80003aa:	2218      	movs	r2, #24
 80003ac:	2100      	movs	r1, #0
 80003ae:	a802      	add	r0, sp, #8
 80003b0:	f003 fce6 	bl	8003d80 <memset>
 80003b4:	4b77      	ldr	r3, [pc, #476]	@ (8000594 <MX_GPIO_Init+0x204>)
 80003b6:	6ada      	ldr	r2, [r3, #44]	@ 0x2c
 80003b8:	2501      	movs	r5, #1
 80003ba:	432a      	orrs	r2, r5
 80003bc:	62da      	str	r2, [r3, #44]	@ 0x2c
 80003be:	6ada      	ldr	r2, [r3, #44]	@ 0x2c
 80003c0:	402a      	ands	r2, r5
 80003c2:	9201      	str	r2, [sp, #4]
 80003c4:	9a01      	ldr	r2, [sp, #4]
 80003c6:	6ada      	ldr	r2, [r3, #44]	@ 0x2c
 80003c8:	2102      	movs	r1, #2
 80003ca:	4689      	mov	r9, r1
 80003cc:	430a      	orrs	r2, r1
 80003ce:	62da      	str	r2, [r3, #44]	@ 0x2c
 80003d0:	6adb      	ldr	r3, [r3, #44]	@ 0x2c
 80003d2:	400b      	ands	r3, r1
 80003d4:	9300      	str	r3, [sp, #0]
 80003d6:	9b00      	ldr	r3, [sp, #0]
 80003d8:	26a0      	movs	r6, #160	@ 0xa0
 80003da:	05f6      	lsls	r6, r6, #23
 80003dc:	000b      	movs	r3, r1
 80003de:	61b1      	str	r1, [r6, #24]
 80003e0:	330e      	adds	r3, #14
 80003e2:	469b      	mov	fp, r3
 80003e4:	61b3      	str	r3, [r6, #24]
 80003e6:	4b6c      	ldr	r3, [pc, #432]	@ (8000598 <MX_GPIO_Init+0x208>)
 80003e8:	4698      	mov	r8, r3
 80003ea:	619d      	str	r5, [r3, #24]
 80003ec:	6199      	str	r1, [r3, #24]
 80003ee:	2380      	movs	r3, #128	@ 0x80
 80003f0:	005b      	lsls	r3, r3, #1
 80003f2:	61b3      	str	r3, [r6, #24]
 80003f4:	2180      	movs	r1, #128	@ 0x80
 80003f6:	0209      	lsls	r1, r1, #8
 80003f8:	61b1      	str	r1, [r6, #24]
 80003fa:	4640      	mov	r0, r8
 80003fc:	3bf8      	subs	r3, #248	@ 0xf8
 80003fe:	6183      	str	r3, [r0, #24]
 8000400:	4b66      	ldr	r3, [pc, #408]	@ (800059c <MX_GPIO_Init+0x20c>)
 8000402:	689a      	ldr	r2, [r3, #8]
 8000404:	210f      	movs	r1, #15
 8000406:	438a      	bics	r2, r1
 8000408:	609a      	str	r2, [r3, #8]
 800040a:	689a      	ldr	r2, [r3, #8]
 800040c:	4964      	ldr	r1, [pc, #400]	@ (80005a0 <MX_GPIO_Init+0x210>)
 800040e:	400a      	ands	r2, r1
 8000410:	609a      	str	r2, [r3, #8]
 8000412:	689a      	ldr	r2, [r3, #8]
 8000414:	4963      	ldr	r1, [pc, #396]	@ (80005a4 <MX_GPIO_Init+0x214>)
 8000416:	400a      	ands	r2, r1
 8000418:	609a      	str	r2, [r3, #8]
 800041a:	68da      	ldr	r2, [r3, #12]
 800041c:	21f0      	movs	r1, #240	@ 0xf0
 800041e:	438a      	bics	r2, r1
 8000420:	4658      	mov	r0, fp
 8000422:	4302      	orrs	r2, r0
 8000424:	60da      	str	r2, [r3, #12]
 8000426:	68f3      	ldr	r3, [r6, #12]
 8000428:	380d      	subs	r0, #13
 800042a:	4682      	mov	sl, r0
 800042c:	4383      	bics	r3, r0
 800042e:	60f3      	str	r3, [r6, #12]
 8000430:	68f3      	ldr	r3, [r6, #12]
 8000432:	302d      	adds	r0, #45	@ 0x2d
 8000434:	4383      	bics	r3, r0
 8000436:	60f3      	str	r3, [r6, #12]
 8000438:	68f3      	ldr	r3, [r6, #12]
 800043a:	3930      	subs	r1, #48	@ 0x30
 800043c:	438b      	bics	r3, r1
 800043e:	60f3      	str	r3, [r6, #12]
 8000440:	4644      	mov	r4, r8
 8000442:	68e4      	ldr	r4, [r4, #12]
 8000444:	4a58      	ldr	r2, [pc, #352]	@ (80005a8 <MX_GPIO_Init+0x218>)
 8000446:	4014      	ands	r4, r2
 8000448:	2380      	movs	r3, #128	@ 0x80
 800044a:	00db      	lsls	r3, r3, #3
 800044c:	4323      	orrs	r3, r4
 800044e:	4644      	mov	r4, r8
 8000450:	60e3      	str	r3, [r4, #12]
 8000452:	6833      	ldr	r3, [r6, #0]
 8000454:	4654      	mov	r4, sl
 8000456:	43a3      	bics	r3, r4
 8000458:	6033      	str	r3, [r6, #0]
 800045a:	6833      	ldr	r3, [r6, #0]
 800045c:	4383      	bics	r3, r0
 800045e:	6033      	str	r3, [r6, #0]
 8000460:	6833      	ldr	r3, [r6, #0]
 8000462:	438b      	bics	r3, r1
 8000464:	6033      	str	r3, [r6, #0]
 8000466:	4640      	mov	r0, r8
 8000468:	6803      	ldr	r3, [r0, #0]
 800046a:	4013      	ands	r3, r2
 800046c:	6003      	str	r3, [r0, #0]
 800046e:	9508      	str	r5, [sp, #32]
 8000470:	713d      	strb	r5, [r7, #4]
 8000472:	2400      	movs	r4, #0
 8000474:	717c      	strb	r4, [r7, #5]
 8000476:	71bd      	strb	r5, [r7, #6]
 8000478:	0038      	movs	r0, r7
 800047a:	f000 fc4b 	bl	8000d14 <LL_EXTI_Init>
 800047e:	2304      	movs	r3, #4
 8000480:	9308      	str	r3, [sp, #32]
 8000482:	713d      	strb	r5, [r7, #4]
 8000484:	717c      	strb	r4, [r7, #5]
 8000486:	71bd      	strb	r5, [r7, #6]
 8000488:	0038      	movs	r0, r7
 800048a:	f000 fc43 	bl	8000d14 <LL_EXTI_Init>
 800048e:	2308      	movs	r3, #8
 8000490:	9308      	str	r3, [sp, #32]
 8000492:	713d      	strb	r5, [r7, #4]
 8000494:	717c      	strb	r4, [r7, #5]
 8000496:	71bd      	strb	r5, [r7, #6]
 8000498:	0038      	movs	r0, r7
 800049a:	f000 fc3b 	bl	8000d14 <LL_EXTI_Init>
 800049e:	2020      	movs	r0, #32
 80004a0:	9008      	str	r0, [sp, #32]
 80004a2:	713d      	strb	r5, [r7, #4]
 80004a4:	717c      	strb	r4, [r7, #5]
 80004a6:	464a      	mov	r2, r9
 80004a8:	71ba      	strb	r2, [r7, #6]
 80004aa:	0038      	movs	r0, r7
 80004ac:	f000 fc32 	bl	8000d14 <LL_EXTI_Init>
 80004b0:	464f      	mov	r7, r9
 80004b2:	9702      	str	r7, [sp, #8]
 80004b4:	9503      	str	r5, [sp, #12]
 80004b6:	9404      	str	r4, [sp, #16]
 80004b8:	9405      	str	r4, [sp, #20]
 80004ba:	9406      	str	r4, [sp, #24]
 80004bc:	af02      	add	r7, sp, #8
 80004be:	0039      	movs	r1, r7
 80004c0:	0030      	movs	r0, r6
 80004c2:	f000 fc8b 	bl	8000ddc <LL_GPIO_Init>
 80004c6:	465f      	mov	r7, fp
 80004c8:	9702      	str	r7, [sp, #8]
 80004ca:	9503      	str	r5, [sp, #12]
 80004cc:	9404      	str	r4, [sp, #16]
 80004ce:	9405      	str	r4, [sp, #20]
 80004d0:	9406      	str	r4, [sp, #24]
 80004d2:	af02      	add	r7, sp, #8
 80004d4:	0039      	movs	r1, r7
 80004d6:	0030      	movs	r0, r6
 80004d8:	f000 fc80 	bl	8000ddc <LL_GPIO_Init>
 80004dc:	9502      	str	r5, [sp, #8]
 80004de:	9503      	str	r5, [sp, #12]
 80004e0:	4657      	mov	r7, sl
 80004e2:	9704      	str	r7, [sp, #16]
 80004e4:	9405      	str	r4, [sp, #20]
 80004e6:	9406      	str	r4, [sp, #24]
 80004e8:	af02      	add	r7, sp, #8
 80004ea:	0039      	movs	r1, r7
 80004ec:	4640      	mov	r0, r8
 80004ee:	f000 fc75 	bl	8000ddc <LL_GPIO_Init>
 80004f2:	464f      	mov	r7, r9
 80004f4:	9702      	str	r7, [sp, #8]
 80004f6:	9503      	str	r5, [sp, #12]
 80004f8:	4657      	mov	r7, sl
 80004fa:	9704      	str	r7, [sp, #16]
 80004fc:	9505      	str	r5, [sp, #20]
 80004fe:	9406      	str	r4, [sp, #24]
 8000500:	af02      	add	r7, sp, #8
 8000502:	0039      	movs	r1, r7
 8000504:	4640      	mov	r0, r8
 8000506:	f000 fc69 	bl	8000ddc <LL_GPIO_Init>
 800050a:	2280      	movs	r2, #128	@ 0x80
 800050c:	0052      	lsls	r2, r2, #1
 800050e:	9202      	str	r2, [sp, #8]
 8000510:	9503      	str	r5, [sp, #12]
 8000512:	9404      	str	r4, [sp, #16]
 8000514:	9405      	str	r4, [sp, #20]
 8000516:	9406      	str	r4, [sp, #24]
 8000518:	0039      	movs	r1, r7
 800051a:	0030      	movs	r0, r6
 800051c:	f000 fc5e 	bl	8000ddc <LL_GPIO_Init>
 8000520:	2180      	movs	r1, #128	@ 0x80
 8000522:	0209      	lsls	r1, r1, #8
 8000524:	9102      	str	r1, [sp, #8]
 8000526:	9503      	str	r5, [sp, #12]
 8000528:	9404      	str	r4, [sp, #16]
 800052a:	9405      	str	r4, [sp, #20]
 800052c:	9406      	str	r4, [sp, #24]
 800052e:	0039      	movs	r1, r7
 8000530:	0030      	movs	r0, r6
 8000532:	f000 fc53 	bl	8000ddc <LL_GPIO_Init>
 8000536:	2308      	movs	r3, #8
 8000538:	9302      	str	r3, [sp, #8]
 800053a:	9503      	str	r5, [sp, #12]
 800053c:	9404      	str	r4, [sp, #16]
 800053e:	9405      	str	r4, [sp, #20]
 8000540:	9406      	str	r4, [sp, #24]
 8000542:	0039      	movs	r1, r7
 8000544:	4640      	mov	r0, r8
 8000546:	f000 fc49 	bl	8000ddc <LL_GPIO_Init>
 800054a:	465b      	mov	r3, fp
 800054c:	9302      	str	r3, [sp, #8]
 800054e:	9403      	str	r4, [sp, #12]
 8000550:	9506      	str	r5, [sp, #24]
 8000552:	0039      	movs	r1, r7
 8000554:	4640      	mov	r0, r8
 8000556:	f000 fc41 	bl	8000ddc <LL_GPIO_Init>
 800055a:	4b14      	ldr	r3, [pc, #80]	@ (80005ac <MX_GPIO_Init+0x21c>)
 800055c:	22c1      	movs	r2, #193	@ 0xc1
 800055e:	0092      	lsls	r2, r2, #2
 8000560:	5899      	ldr	r1, [r3, r2]
 8000562:	4813      	ldr	r0, [pc, #76]	@ (80005b0 <MX_GPIO_Init+0x220>)
 8000564:	4001      	ands	r1, r0
 8000566:	5099      	str	r1, [r3, r2]
 8000568:	2020      	movs	r0, #32
 800056a:	6018      	str	r0, [r3, #0]
 800056c:	5899      	ldr	r1, [r3, r2]
 800056e:	4811      	ldr	r0, [pc, #68]	@ (80005b4 <MX_GPIO_Init+0x224>)
 8000570:	4001      	ands	r1, r0
 8000572:	5099      	str	r1, [r3, r2]
 8000574:	2140      	movs	r1, #64	@ 0x40
 8000576:	6019      	str	r1, [r3, #0]
 8000578:	5899      	ldr	r1, [r3, r2]
 800057a:	0209      	lsls	r1, r1, #8
 800057c:	0a09      	lsrs	r1, r1, #8
 800057e:	5099      	str	r1, [r3, r2]
 8000580:	2280      	movs	r2, #128	@ 0x80
 8000582:	601a      	str	r2, [r3, #0]
 8000584:	b00b      	add	sp, #44	@ 0x2c
 8000586:	bcf0      	pop	{r4, r5, r6, r7}
 8000588:	46bb      	mov	fp, r7
 800058a:	46b2      	mov	sl, r6
 800058c:	46a9      	mov	r9, r5
 800058e:	46a0      	mov	r8, r4
 8000590:	bdf0      	pop	{r4, r5, r6, r7, pc}
 8000592:	46c0      	nop			@ (mov r8, r8)
 8000594:	40021000 	.word	0x40021000
 8000598:	50000400 	.word	0x50000400
 800059c:	40010000 	.word	0x40010000
 80005a0:	fffff0ff 	.word	0xfffff0ff
 80005a4:	ffff0fff 	.word	0xffff0fff
 80005a8:	fffff3ff 	.word	0xfffff3ff
 80005ac:	e000e100 	.word	0xe000e100
 80005b0:	ffff00ff 	.word	0xffff00ff
 80005b4:	ff00ffff 	.word	0xff00ffff

080005b8 <MX_RTC_Init>:
 80005b8:	b510      	push	{r4, lr}
 80005ba:	b084      	sub	sp, #16
 80005bc:	220c      	movs	r2, #12
 80005be:	2100      	movs	r1, #0
 80005c0:	a801      	add	r0, sp, #4
 80005c2:	f003 fbdd 	bl	8003d80 <memset>
 80005c6:	4a10      	ldr	r2, [pc, #64]	@ (8000608 <MX_RTC_Init+0x50>)
 80005c8:	6d11      	ldr	r1, [r2, #80]	@ 0x50
 80005ca:	2380      	movs	r3, #128	@ 0x80
 80005cc:	02db      	lsls	r3, r3, #11
 80005ce:	430b      	orrs	r3, r1
 80005d0:	6513      	str	r3, [r2, #80]	@ 0x50
 80005d2:	4b0e      	ldr	r3, [pc, #56]	@ (800060c <MX_RTC_Init+0x54>)
 80005d4:	21c0      	movs	r1, #192	@ 0xc0
 80005d6:	0089      	lsls	r1, r1, #2
 80005d8:	585a      	ldr	r2, [r3, r1]
 80005da:	480d      	ldr	r0, [pc, #52]	@ (8000610 <MX_RTC_Init+0x58>)
 80005dc:	4002      	ands	r2, r0
 80005de:	505a      	str	r2, [r3, r1]
 80005e0:	2204      	movs	r2, #4
 80005e2:	601a      	str	r2, [r3, #0]
 80005e4:	2300      	movs	r3, #0
 80005e6:	9301      	str	r3, [sp, #4]
 80005e8:	337f      	adds	r3, #127	@ 0x7f
 80005ea:	9302      	str	r3, [sp, #8]
 80005ec:	3380      	adds	r3, #128	@ 0x80
 80005ee:	9303      	str	r3, [sp, #12]
 80005f0:	4c08      	ldr	r4, [pc, #32]	@ (8000614 <MX_RTC_Init+0x5c>)
 80005f2:	a901      	add	r1, sp, #4
 80005f4:	0020      	movs	r0, r4
 80005f6:	f000 fd7b 	bl	80010f0 <LL_RTC_Init>
 80005fa:	68a3      	ldr	r3, [r4, #8]
 80005fc:	2207      	movs	r2, #7
 80005fe:	4393      	bics	r3, r2
 8000600:	60a3      	str	r3, [r4, #8]
 8000602:	b004      	add	sp, #16
 8000604:	bd10      	pop	{r4, pc}
 8000606:	46c0      	nop			@ (mov r8, r8)
 8000608:	40021000 	.word	0x40021000
 800060c:	e000e100 	.word	0xe000e100
 8000610:	ff00ffff 	.word	0xff00ffff
 8000614:	40002800 	.word	0x40002800

08000618 <MX_SPI1_Init>:
 8000618:	b5f0      	push	{r4, r5, r6, r7, lr}
 800061a:	46c6      	mov	lr, r8
 800061c:	b500      	push	{lr}
 800061e:	b092      	sub	sp, #72	@ 0x48
 8000620:	2228      	movs	r2, #40	@ 0x28
 8000622:	2100      	movs	r1, #0
 8000624:	a808      	add	r0, sp, #32
 8000626:	f003 fbab 	bl	8003d80 <memset>
 800062a:	2218      	movs	r2, #24
 800062c:	2100      	movs	r1, #0
 800062e:	a802      	add	r0, sp, #8
 8000630:	f003 fba6 	bl	8003d80 <memset>
 8000634:	4b2b      	ldr	r3, [pc, #172]	@ (80006e4 <MX_SPI1_Init+0xcc>)
 8000636:	6b5a      	ldr	r2, [r3, #52]	@ 0x34
 8000638:	2180      	movs	r1, #128	@ 0x80
 800063a:	0149      	lsls	r1, r1, #5
 800063c:	430a      	orrs	r2, r1
 800063e:	635a      	str	r2, [r3, #52]	@ 0x34
 8000640:	6b5a      	ldr	r2, [r3, #52]	@ 0x34
 8000642:	400a      	ands	r2, r1
 8000644:	9201      	str	r2, [sp, #4]
 8000646:	9a01      	ldr	r2, [sp, #4]
 8000648:	6ad9      	ldr	r1, [r3, #44]	@ 0x2c
 800064a:	2201      	movs	r2, #1
 800064c:	4311      	orrs	r1, r2
 800064e:	62d9      	str	r1, [r3, #44]	@ 0x2c
 8000650:	6adb      	ldr	r3, [r3, #44]	@ 0x2c
 8000652:	401a      	ands	r2, r3
 8000654:	9200      	str	r2, [sp, #0]
 8000656:	9b00      	ldr	r3, [sp, #0]
 8000658:	2320      	movs	r3, #32
 800065a:	9302      	str	r3, [sp, #8]
 800065c:	3b1e      	subs	r3, #30
 800065e:	4698      	mov	r8, r3
 8000660:	9303      	str	r3, [sp, #12]
 8000662:	2603      	movs	r6, #3
 8000664:	9604      	str	r6, [sp, #16]
 8000666:	25a0      	movs	r5, #160	@ 0xa0
 8000668:	05ed      	lsls	r5, r5, #23
 800066a:	a902      	add	r1, sp, #8
 800066c:	0028      	movs	r0, r5
 800066e:	f000 fbb5 	bl	8000ddc <LL_GPIO_Init>
 8000672:	2740      	movs	r7, #64	@ 0x40
 8000674:	9702      	str	r7, [sp, #8]
 8000676:	4643      	mov	r3, r8
 8000678:	9303      	str	r3, [sp, #12]
 800067a:	9604      	str	r6, [sp, #16]
 800067c:	2400      	movs	r4, #0
 800067e:	9405      	str	r4, [sp, #20]
 8000680:	9406      	str	r4, [sp, #24]
 8000682:	9407      	str	r4, [sp, #28]
 8000684:	a902      	add	r1, sp, #8
 8000686:	0028      	movs	r0, r5
 8000688:	f000 fba8 	bl	8000ddc <LL_GPIO_Init>
 800068c:	2380      	movs	r3, #128	@ 0x80
 800068e:	9302      	str	r3, [sp, #8]
 8000690:	4643      	mov	r3, r8
 8000692:	9303      	str	r3, [sp, #12]
 8000694:	9604      	str	r6, [sp, #16]
 8000696:	9405      	str	r4, [sp, #20]
 8000698:	9406      	str	r4, [sp, #24]
 800069a:	9407      	str	r4, [sp, #28]
 800069c:	a902      	add	r1, sp, #8
 800069e:	0028      	movs	r0, r5
 80006a0:	f000 fb9c 	bl	8000ddc <LL_GPIO_Init>
 80006a4:	9408      	str	r4, [sp, #32]
 80006a6:	2382      	movs	r3, #130	@ 0x82
 80006a8:	005b      	lsls	r3, r3, #1
 80006aa:	9309      	str	r3, [sp, #36]	@ 0x24
 80006ac:	940a      	str	r4, [sp, #40]	@ 0x28
 80006ae:	940b      	str	r4, [sp, #44]	@ 0x2c
 80006b0:	940c      	str	r4, [sp, #48]	@ 0x30
 80006b2:	33fc      	adds	r3, #252	@ 0xfc
 80006b4:	930d      	str	r3, [sp, #52]	@ 0x34
 80006b6:	3be9      	subs	r3, #233	@ 0xe9
 80006b8:	3bff      	subs	r3, #255	@ 0xff
 80006ba:	930e      	str	r3, [sp, #56]	@ 0x38
 80006bc:	940f      	str	r4, [sp, #60]	@ 0x3c
 80006be:	9410      	str	r4, [sp, #64]	@ 0x40
 80006c0:	3b11      	subs	r3, #17
 80006c2:	9311      	str	r3, [sp, #68]	@ 0x44
 80006c4:	4c08      	ldr	r4, [pc, #32]	@ (80006e8 <MX_SPI1_Init+0xd0>)
 80006c6:	a908      	add	r1, sp, #32
 80006c8:	0020      	movs	r0, r4
 80006ca:	f000 fd39 	bl	8001140 <LL_SPI_Init>
 80006ce:	6863      	ldr	r3, [r4, #4]
 80006d0:	2210      	movs	r2, #16
 80006d2:	4393      	bics	r3, r2
 80006d4:	6063      	str	r3, [r4, #4]
 80006d6:	6823      	ldr	r3, [r4, #0]
 80006d8:	433b      	orrs	r3, r7
 80006da:	6023      	str	r3, [r4, #0]
 80006dc:	b012      	add	sp, #72	@ 0x48
 80006de:	bc80      	pop	{r7}
 80006e0:	46b8      	mov	r8, r7
 80006e2:	bdf0      	pop	{r4, r5, r6, r7, pc}
 80006e4:	40021000 	.word	0x40021000
 80006e8:	40013000 	.word	0x40013000

080006ec <MX_USART2_UART_Init>:
 80006ec:	b570      	push	{r4, r5, r6, lr}
 80006ee:	b090      	sub	sp, #64	@ 0x40
 80006f0:	221c      	movs	r2, #28
 80006f2:	2100      	movs	r1, #0
 80006f4:	a809      	add	r0, sp, #36	@ 0x24
 80006f6:	f003 fb43 	bl	8003d80 <memset>
 80006fa:	2218      	movs	r2, #24
 80006fc:	2100      	movs	r1, #0
 80006fe:	a803      	add	r0, sp, #12
 8000700:	f003 fb3e 	bl	8003d80 <memset>
 8000704:	4b36      	ldr	r3, [pc, #216]	@ (80007e0 <MX_USART2_UART_Init+0xf4>)
 8000706:	6b9a      	ldr	r2, [r3, #56]	@ 0x38
 8000708:	2180      	movs	r1, #128	@ 0x80
 800070a:	0289      	lsls	r1, r1, #10
 800070c:	430a      	orrs	r2, r1
 800070e:	639a      	str	r2, [r3, #56]	@ 0x38
 8000710:	6b9a      	ldr	r2, [r3, #56]	@ 0x38
 8000712:	400a      	ands	r2, r1
 8000714:	9202      	str	r2, [sp, #8]
 8000716:	9a02      	ldr	r2, [sp, #8]
 8000718:	6ada      	ldr	r2, [r3, #44]	@ 0x2c
 800071a:	2402      	movs	r4, #2
 800071c:	4322      	orrs	r2, r4
 800071e:	62da      	str	r2, [r3, #44]	@ 0x2c
 8000720:	6adb      	ldr	r3, [r3, #44]	@ 0x2c
 8000722:	4023      	ands	r3, r4
 8000724:	9301      	str	r3, [sp, #4]
 8000726:	9b01      	ldr	r3, [sp, #4]
 8000728:	2340      	movs	r3, #64	@ 0x40
 800072a:	9303      	str	r3, [sp, #12]
 800072c:	9404      	str	r4, [sp, #16]
 800072e:	2603      	movs	r6, #3
 8000730:	9605      	str	r6, [sp, #20]
 8000732:	4d2c      	ldr	r5, [pc, #176]	@ (80007e4 <MX_USART2_UART_Init+0xf8>)
 8000734:	a903      	add	r1, sp, #12
 8000736:	0028      	movs	r0, r5
 8000738:	f000 fb50 	bl	8000ddc <LL_GPIO_Init>
 800073c:	2380      	movs	r3, #128	@ 0x80
 800073e:	9303      	str	r3, [sp, #12]
 8000740:	9404      	str	r4, [sp, #16]
 8000742:	9605      	str	r6, [sp, #20]
 8000744:	2400      	movs	r4, #0
 8000746:	9406      	str	r4, [sp, #24]
 8000748:	9407      	str	r4, [sp, #28]
 800074a:	9408      	str	r4, [sp, #32]
 800074c:	a903      	add	r1, sp, #12
 800074e:	0028      	movs	r0, r5
 8000750:	f000 fb44 	bl	8000ddc <LL_GPIO_Init>
 8000754:	4b24      	ldr	r3, [pc, #144]	@ (80007e8 <MX_USART2_UART_Init+0xfc>)
 8000756:	21c7      	movs	r1, #199	@ 0xc7
 8000758:	0089      	lsls	r1, r1, #2
 800075a:	585a      	ldr	r2, [r3, r1]
 800075c:	20ff      	movs	r0, #255	@ 0xff
 800075e:	4382      	bics	r2, r0
 8000760:	505a      	str	r2, [r3, r1]
 8000762:	2280      	movs	r2, #128	@ 0x80
 8000764:	0552      	lsls	r2, r2, #21
 8000766:	601a      	str	r2, [r3, #0]
 8000768:	23e1      	movs	r3, #225	@ 0xe1
 800076a:	025b      	lsls	r3, r3, #9
 800076c:	9309      	str	r3, [sp, #36]	@ 0x24
 800076e:	940a      	str	r4, [sp, #40]	@ 0x28
 8000770:	940b      	str	r4, [sp, #44]	@ 0x2c
 8000772:	940c      	str	r4, [sp, #48]	@ 0x30
 8000774:	230c      	movs	r3, #12
 8000776:	930d      	str	r3, [sp, #52]	@ 0x34
 8000778:	940e      	str	r4, [sp, #56]	@ 0x38
 800077a:	940f      	str	r4, [sp, #60]	@ 0x3c
 800077c:	4c1b      	ldr	r4, [pc, #108]	@ (80007ec <MX_USART2_UART_Init+0x100>)
 800077e:	a909      	add	r1, sp, #36	@ 0x24
 8000780:	0020      	movs	r0, r4
 8000782:	f000 fd2f 	bl	80011e4 <LL_USART_Init>
 8000786:	6863      	ldr	r3, [r4, #4]
 8000788:	4a19      	ldr	r2, [pc, #100]	@ (80007f0 <MX_USART2_UART_Init+0x104>)
 800078a:	4013      	ands	r3, r2
 800078c:	6063      	str	r3, [r4, #4]
 800078e:	68a3      	ldr	r3, [r4, #8]
 8000790:	222a      	movs	r2, #42	@ 0x2a
 8000792:	4393      	bics	r3, r2
 8000794:	60a3      	str	r3, [r4, #8]
 8000796:	6822      	ldr	r2, [r4, #0]
 8000798:	2301      	movs	r3, #1
 800079a:	431a      	orrs	r2, r3
 800079c:	6022      	str	r2, [r4, #0]
 800079e:	f3ef 8110 	mrs	r1, PRIMASK
 80007a2:	f383 8810 	msr	PRIMASK, r3
 80007a6:	6820      	ldr	r0, [r4, #0]
 80007a8:	2280      	movs	r2, #128	@ 0x80
 80007aa:	0052      	lsls	r2, r2, #1
 80007ac:	4302      	orrs	r2, r0
 80007ae:	6022      	str	r2, [r4, #0]
 80007b0:	f381 8810 	msr	PRIMASK, r1
 80007b4:	f3ef 8110 	mrs	r1, PRIMASK
 80007b8:	f383 8810 	msr	PRIMASK, r3
 80007bc:	68a2      	ldr	r2, [r4, #8]
 80007be:	431a      	orrs	r2, r3
 80007c0:	60a2      	str	r2, [r4, #8]
 80007c2:	f381 8810 	msr	PRIMASK, r1
 80007c6:	f3ef 8210 	mrs	r2, PRIMASK
 80007ca:	f383 8810 	msr	PRIMASK, r3
 80007ce:	6823      	ldr	r3, [r4, #0]
 80007d0:	2120      	movs	r1, #32
 80007d2:	430b      	orrs	r3, r1
 80007d4:	6023      	str	r3, [r4, #0]
 80007d6:	f382 8810 	msr	PRIMASK, r2
 80007da:	b010      	add	sp, #64	@ 0x40
 80007dc:	bd70      	pop	{r4, r5, r6, pc}
 80007de:	46c0      	nop			@ (mov r8, r8)
 80007e0:	40021000 	.word	0x40021000
 80007e4:	50000400 	.word	0x50000400
 80007e8:	e000e100 	.word	0xe000e100
 80007ec:	40004400 	.word	0x40004400
 80007f0:	ffffb7ff 	.word	0xffffb7ff

080007f4 <MX_I2C1_Init>:
 80007f4:	b5f0      	push	{r4, r5, r6, r7, lr}
 80007f6:	46c6      	mov	lr, r8
 80007f8:	b500      	push	{lr}
 80007fa:	b090      	sub	sp, #64	@ 0x40
 80007fc:	221c      	movs	r2, #28
 80007fe:	2100      	movs	r1, #0
 8000800:	a809      	add	r0, sp, #36	@ 0x24
 8000802:	f003 fabd 	bl	8003d80 <memset>
 8000806:	2218      	movs	r2, #24
 8000808:	2100      	movs	r1, #0
 800080a:	a803      	add	r0, sp, #12
 800080c:	f003 fab8 	bl	8003d80 <memset>
 8000810:	4c2b      	ldr	r4, [pc, #172]	@ (80008c0 <MX_I2C1_Init+0xcc>)
 8000812:	6ae3      	ldr	r3, [r4, #44]	@ 0x2c
 8000814:	2601      	movs	r6, #1
 8000816:	4333      	orrs	r3, r6
 8000818:	62e3      	str	r3, [r4, #44]	@ 0x2c
 800081a:	6ae3      	ldr	r3, [r4, #44]	@ 0x2c
 800081c:	4033      	ands	r3, r6
 800081e:	9302      	str	r3, [sp, #8]
 8000820:	9b02      	ldr	r3, [sp, #8]
 8000822:	2380      	movs	r3, #128	@ 0x80
 8000824:	009b      	lsls	r3, r3, #2
 8000826:	9303      	str	r3, [sp, #12]
 8000828:	3bff      	subs	r3, #255	@ 0xff
 800082a:	3bff      	subs	r3, #255	@ 0xff
 800082c:	4698      	mov	r8, r3
 800082e:	9304      	str	r3, [sp, #16]
 8000830:	2503      	movs	r5, #3
 8000832:	9505      	str	r5, [sp, #20]
 8000834:	9606      	str	r6, [sp, #24]
 8000836:	9608      	str	r6, [sp, #32]
 8000838:	27a0      	movs	r7, #160	@ 0xa0
 800083a:	05ff      	lsls	r7, r7, #23
 800083c:	a903      	add	r1, sp, #12
 800083e:	0038      	movs	r0, r7
 8000840:	f000 facc 	bl	8000ddc <LL_GPIO_Init>
 8000844:	2380      	movs	r3, #128	@ 0x80
 8000846:	00db      	lsls	r3, r3, #3
 8000848:	9303      	str	r3, [sp, #12]
 800084a:	4643      	mov	r3, r8
 800084c:	9304      	str	r3, [sp, #16]
 800084e:	9505      	str	r5, [sp, #20]
 8000850:	9606      	str	r6, [sp, #24]
 8000852:	2500      	movs	r5, #0
 8000854:	9507      	str	r5, [sp, #28]
 8000856:	9608      	str	r6, [sp, #32]
 8000858:	a903      	add	r1, sp, #12
 800085a:	0038      	movs	r0, r7
 800085c:	f000 fabe 	bl	8000ddc <LL_GPIO_Init>
 8000860:	6ba3      	ldr	r3, [r4, #56]	@ 0x38
 8000862:	2280      	movs	r2, #128	@ 0x80
 8000864:	0392      	lsls	r2, r2, #14
 8000866:	4313      	orrs	r3, r2
 8000868:	63a3      	str	r3, [r4, #56]	@ 0x38
 800086a:	6ba3      	ldr	r3, [r4, #56]	@ 0x38
 800086c:	4013      	ands	r3, r2
 800086e:	9301      	str	r3, [sp, #4]
 8000870:	9b01      	ldr	r3, [sp, #4]
 8000872:	4c14      	ldr	r4, [pc, #80]	@ (80008c4 <MX_I2C1_Init+0xd0>)
 8000874:	6862      	ldr	r2, [r4, #4]
 8000876:	2380      	movs	r3, #128	@ 0x80
 8000878:	049b      	lsls	r3, r3, #18
 800087a:	4313      	orrs	r3, r2
 800087c:	6063      	str	r3, [r4, #4]
 800087e:	68e3      	ldr	r3, [r4, #12]
 8000880:	4a11      	ldr	r2, [pc, #68]	@ (80008c8 <MX_I2C1_Init+0xd4>)
 8000882:	4013      	ands	r3, r2
 8000884:	60e3      	str	r3, [r4, #12]
 8000886:	6823      	ldr	r3, [r4, #0]
 8000888:	4a10      	ldr	r2, [pc, #64]	@ (80008cc <MX_I2C1_Init+0xd8>)
 800088a:	4013      	ands	r3, r2
 800088c:	6023      	str	r3, [r4, #0]
 800088e:	6823      	ldr	r3, [r4, #0]
 8000890:	4a0f      	ldr	r2, [pc, #60]	@ (80008d0 <MX_I2C1_Init+0xdc>)
 8000892:	4013      	ands	r3, r2
 8000894:	6023      	str	r3, [r4, #0]
 8000896:	9509      	str	r5, [sp, #36]	@ 0x24
 8000898:	4b0e      	ldr	r3, [pc, #56]	@ (80008d4 <MX_I2C1_Init+0xe0>)
 800089a:	930a      	str	r3, [sp, #40]	@ 0x28
 800089c:	950b      	str	r5, [sp, #44]	@ 0x2c
 800089e:	950c      	str	r5, [sp, #48]	@ 0x30
 80008a0:	950d      	str	r5, [sp, #52]	@ 0x34
 80008a2:	950e      	str	r5, [sp, #56]	@ 0x38
 80008a4:	950f      	str	r5, [sp, #60]	@ 0x3c
 80008a6:	a909      	add	r1, sp, #36	@ 0x24
 80008a8:	0020      	movs	r0, r4
 80008aa:	f000 faf3 	bl	8000e94 <LL_I2C_Init>
 80008ae:	68e3      	ldr	r3, [r4, #12]
 80008b0:	4a09      	ldr	r2, [pc, #36]	@ (80008d8 <MX_I2C1_Init+0xe4>)
 80008b2:	4013      	ands	r3, r2
 80008b4:	60e3      	str	r3, [r4, #12]
 80008b6:	b010      	add	sp, #64	@ 0x40
 80008b8:	bc80      	pop	{r7}
 80008ba:	46b8      	mov	r8, r7
 80008bc:	bdf0      	pop	{r4, r5, r6, r7, pc}
 80008be:	46c0      	nop			@ (mov r8, r8)
 80008c0:	40021000 	.word	0x40021000
 80008c4:	40005400 	.word	0x40005400
 80008c8:	ffff7fff 	.word	0xffff7fff
 80008cc:	fff7ffff 	.word	0xfff7ffff
 80008d0:	fffdffff 	.word	0xfffdffff
 80008d4:	00503d58 	.word	0x00503d58
 80008d8:	fffff801 	.word	0xfffff801

080008dc <SystemClock_Config>:
 80008dc:	b510      	push	{r4, lr}
 80008de:	4a46      	ldr	r2, [pc, #280]	@ (80009f8 <SystemClock_Config+0x11c>)
 80008e0:	6813      	ldr	r3, [r2, #0]
 80008e2:	2101      	movs	r1, #1
 80008e4:	438b      	bics	r3, r1
 80008e6:	6013      	str	r3, [r2, #0]
 80008e8:	4b43      	ldr	r3, [pc, #268]	@ (80009f8 <SystemClock_Config+0x11c>)
 80008ea:	681b      	ldr	r3, [r3, #0]
 80008ec:	07db      	lsls	r3, r3, #31
 80008ee:	d4fb      	bmi.n	80008e8 <SystemClock_Config+0xc>
 80008f0:	4942      	ldr	r1, [pc, #264]	@ (80009fc <SystemClock_Config+0x120>)
 80008f2:	680a      	ldr	r2, [r1, #0]
 80008f4:	4b42      	ldr	r3, [pc, #264]	@ (8000a00 <SystemClock_Config+0x124>)
 80008f6:	401a      	ands	r2, r3
 80008f8:	2380      	movs	r3, #128	@ 0x80
 80008fa:	011b      	lsls	r3, r3, #4
 80008fc:	4313      	orrs	r3, r2
 80008fe:	600b      	str	r3, [r1, #0]
 8000900:	4b3e      	ldr	r3, [pc, #248]	@ (80009fc <SystemClock_Config+0x120>)
 8000902:	685b      	ldr	r3, [r3, #4]
 8000904:	06db      	lsls	r3, r3, #27
 8000906:	d4fb      	bmi.n	8000900 <SystemClock_Config+0x24>
 8000908:	4a3e      	ldr	r2, [pc, #248]	@ (8000a04 <SystemClock_Config+0x128>)
 800090a:	6813      	ldr	r3, [r2, #0]
 800090c:	2101      	movs	r1, #1
 800090e:	430b      	orrs	r3, r1
 8000910:	6013      	str	r3, [r2, #0]
 8000912:	e001      	b.n	8000918 <SystemClock_Config+0x3c>
 8000914:	2b01      	cmp	r3, #1
 8000916:	d008      	beq.n	800092a <SystemClock_Config+0x4e>
 8000918:	4b3a      	ldr	r3, [pc, #232]	@ (8000a04 <SystemClock_Config+0x128>)
 800091a:	681a      	ldr	r2, [r3, #0]
 800091c:	2104      	movs	r1, #4
 800091e:	000b      	movs	r3, r1
 8000920:	4013      	ands	r3, r2
 8000922:	4211      	tst	r1, r2
 8000924:	d0f6      	beq.n	8000914 <SystemClock_Config+0x38>
 8000926:	2301      	movs	r3, #1
 8000928:	e7f4      	b.n	8000914 <SystemClock_Config+0x38>
 800092a:	4a36      	ldr	r2, [pc, #216]	@ (8000a04 <SystemClock_Config+0x128>)
 800092c:	6850      	ldr	r0, [r2, #4]
 800092e:	4936      	ldr	r1, [pc, #216]	@ (8000a08 <SystemClock_Config+0x12c>)
 8000930:	4008      	ands	r0, r1
 8000932:	2180      	movs	r1, #128	@ 0x80
 8000934:	0149      	lsls	r1, r1, #5
 8000936:	4301      	orrs	r1, r0
 8000938:	6051      	str	r1, [r2, #4]
 800093a:	6d11      	ldr	r1, [r2, #80]	@ 0x50
 800093c:	2001      	movs	r0, #1
 800093e:	4301      	orrs	r1, r0
 8000940:	6511      	str	r1, [r2, #80]	@ 0x50
 8000942:	e001      	b.n	8000948 <SystemClock_Config+0x6c>
 8000944:	2801      	cmp	r0, #1
 8000946:	d008      	beq.n	800095a <SystemClock_Config+0x7e>
 8000948:	4a2e      	ldr	r2, [pc, #184]	@ (8000a04 <SystemClock_Config+0x128>)
 800094a:	6d12      	ldr	r2, [r2, #80]	@ 0x50
 800094c:	2102      	movs	r1, #2
 800094e:	0008      	movs	r0, r1
 8000950:	4010      	ands	r0, r2
 8000952:	4211      	tst	r1, r2
 8000954:	d0f6      	beq.n	8000944 <SystemClock_Config+0x68>
 8000956:	0018      	movs	r0, r3
 8000958:	e7f4      	b.n	8000944 <SystemClock_Config+0x68>
 800095a:	4a28      	ldr	r2, [pc, #160]	@ (80009fc <SystemClock_Config+0x120>)
 800095c:	6811      	ldr	r1, [r2, #0]
 800095e:	2380      	movs	r3, #128	@ 0x80
 8000960:	005b      	lsls	r3, r3, #1
 8000962:	430b      	orrs	r3, r1
 8000964:	6013      	str	r3, [r2, #0]
 8000966:	4b27      	ldr	r3, [pc, #156]	@ (8000a04 <SystemClock_Config+0x128>)
 8000968:	6d1b      	ldr	r3, [r3, #80]	@ 0x50
 800096a:	22c0      	movs	r2, #192	@ 0xc0
 800096c:	0292      	lsls	r2, r2, #10
 800096e:	4013      	ands	r3, r2
 8000970:	2280      	movs	r2, #128	@ 0x80
 8000972:	0292      	lsls	r2, r2, #10
 8000974:	4293      	cmp	r3, r2
 8000976:	d010      	beq.n	800099a <SystemClock_Config+0xbe>
 8000978:	4b22      	ldr	r3, [pc, #136]	@ (8000a04 <SystemClock_Config+0x128>)
 800097a:	6d19      	ldr	r1, [r3, #80]	@ 0x50
 800097c:	2280      	movs	r2, #128	@ 0x80
 800097e:	0312      	lsls	r2, r2, #12
 8000980:	430a      	orrs	r2, r1
 8000982:	651a      	str	r2, [r3, #80]	@ 0x50
 8000984:	6d1a      	ldr	r2, [r3, #80]	@ 0x50
 8000986:	4921      	ldr	r1, [pc, #132]	@ (8000a0c <SystemClock_Config+0x130>)
 8000988:	400a      	ands	r2, r1
 800098a:	651a      	str	r2, [r3, #80]	@ 0x50
 800098c:	6d19      	ldr	r1, [r3, #80]	@ 0x50
 800098e:	4a20      	ldr	r2, [pc, #128]	@ (8000a10 <SystemClock_Config+0x134>)
 8000990:	4011      	ands	r1, r2
 8000992:	2280      	movs	r2, #128	@ 0x80
 8000994:	0292      	lsls	r2, r2, #10
 8000996:	430a      	orrs	r2, r1
 8000998:	651a      	str	r2, [r3, #80]	@ 0x50
 800099a:	4b1a      	ldr	r3, [pc, #104]	@ (8000a04 <SystemClock_Config+0x128>)
 800099c:	6d19      	ldr	r1, [r3, #80]	@ 0x50
 800099e:	2280      	movs	r2, #128	@ 0x80
 80009a0:	02d2      	lsls	r2, r2, #11
 80009a2:	430a      	orrs	r2, r1
 80009a4:	651a      	str	r2, [r3, #80]	@ 0x50
 80009a6:	68da      	ldr	r2, [r3, #12]
 80009a8:	21f0      	movs	r1, #240	@ 0xf0
 80009aa:	438a      	bics	r2, r1
 80009ac:	60da      	str	r2, [r3, #12]
 80009ae:	68da      	ldr	r2, [r3, #12]
 80009b0:	4918      	ldr	r1, [pc, #96]	@ (8000a14 <SystemClock_Config+0x138>)
 80009b2:	400a      	ands	r2, r1
 80009b4:	60da      	str	r2, [r3, #12]
 80009b6:	68da      	ldr	r2, [r3, #12]
 80009b8:	4917      	ldr	r1, [pc, #92]	@ (8000a18 <SystemClock_Config+0x13c>)
 80009ba:	400a      	ands	r2, r1
 80009bc:	60da      	str	r2, [r3, #12]
 80009be:	68da      	ldr	r2, [r3, #12]
 80009c0:	2103      	movs	r1, #3
 80009c2:	438a      	bics	r2, r1
 80009c4:	3902      	subs	r1, #2
 80009c6:	430a      	orrs	r2, r1
 80009c8:	60da      	str	r2, [r3, #12]
 80009ca:	4b0e      	ldr	r3, [pc, #56]	@ (8000a04 <SystemClock_Config+0x128>)
 80009cc:	68da      	ldr	r2, [r3, #12]
 80009ce:	230c      	movs	r3, #12
 80009d0:	4013      	ands	r3, r2
 80009d2:	2b04      	cmp	r3, #4
 80009d4:	d1f9      	bne.n	80009ca <SystemClock_Config+0xee>
 80009d6:	4c11      	ldr	r4, [pc, #68]	@ (8000a1c <SystemClock_Config+0x140>)
 80009d8:	0020      	movs	r0, r4
 80009da:	f000 fc43 	bl	8001264 <LL_Init1msTick>
 80009de:	0020      	movs	r0, r4
 80009e0:	f000 fc64 	bl	80012ac <LL_SetSystemCoreClock>
 80009e4:	4b07      	ldr	r3, [pc, #28]	@ (8000a04 <SystemClock_Config+0x128>)
 80009e6:	6cda      	ldr	r2, [r3, #76]	@ 0x4c
 80009e8:	210c      	movs	r1, #12
 80009ea:	438a      	bics	r2, r1
 80009ec:	64da      	str	r2, [r3, #76]	@ 0x4c
 80009ee:	6cda      	ldr	r2, [r3, #76]	@ 0x4c
 80009f0:	490b      	ldr	r1, [pc, #44]	@ (8000a20 <SystemClock_Config+0x144>)
 80009f2:	400a      	ands	r2, r1
 80009f4:	64da      	str	r2, [r3, #76]	@ 0x4c
 80009f6:	bd10      	pop	{r4, pc}
 80009f8:	40022000 	.word	0x40022000
 80009fc:	40007000 	.word	0x40007000
 8000a00:	ffffe7ff 	.word	0xffffe7ff
 8000a04:	40021000 	.word	0x40021000
 8000a08:	ffffe0ff 	.word	0xffffe0ff
 8000a0c:	fff7ffff 	.word	0xfff7ffff
 8000a10:	fffcffff 	.word	0xfffcffff
 8000a14:	fffff8ff 	.word	0xfffff8ff
 8000a18:	ffffc7ff 	.word	0xffffc7ff
 8000a1c:	00f42400 	.word	0x00f42400
 8000a20:	ffffcfff 	.word	0xffffcfff

08000a24 <Error_Handler>:
 8000a24:	b672      	cpsid	i
 8000a26:	e7fe      	b.n	8000a26 <Error_Handler+0x2>

08000a28 <inittestapplication>:
 8000a28:	b570      	push	{r4, r5, r6, lr}
 8000a2a:	f000 fe05 	bl	8001638 <decamutexon>
 8000a2e:	0005      	movs	r5, r0
 8000a30:	f000 fdbc 	bl	80015ac <port_set_dw1000_slowrate>
 8000a34:	f001 fcd2 	bl	80023dc <dwt_readdevid>
 8000a38:	4b19      	ldr	r3, [pc, #100]	@ (8000aa0 <inittestapplication+0x78>)
 8000a3a:	4298      	cmp	r0, r3
 8000a3c:	d006      	beq.n	8000a4c <inittestapplication+0x24>
 8000a3e:	f000 fe21 	bl	8001684 <port_wakeup_dw1000>
 8000a42:	f001 fccb 	bl	80023dc <dwt_readdevid>
 8000a46:	4b16      	ldr	r3, [pc, #88]	@ (8000aa0 <inittestapplication+0x78>)
 8000a48:	4298      	cmp	r0, r3
 8000a4a:	d123      	bne.n	8000a94 <inittestapplication+0x6c>
 8000a4c:	2001      	movs	r0, #1
 8000a4e:	f002 fa0d 	bl	8002e6c <instance_init>
 8000a52:	1e04      	subs	r4, r0, #0
 8000a54:	db20      	blt.n	8000a98 <inittestapplication+0x70>
 8000a56:	f000 fdcd 	bl	80015f4 <port_set_dw1000_fastrate>
 8000a5a:	f001 fcbf 	bl	80023dc <dwt_readdevid>
 8000a5e:	4b10      	ldr	r3, [pc, #64]	@ (8000aa0 <inittestapplication+0x78>)
 8000a60:	4298      	cmp	r0, r3
 8000a62:	d11b      	bne.n	8000a9c <inittestapplication+0x74>
 8000a64:	4b0f      	ldr	r3, [pc, #60]	@ (8000aa4 <inittestapplication+0x7c>)
 8000a66:	6818      	ldr	r0, [r3, #0]
 8000a68:	f002 fa5e 	bl	8002f28 <instance_config>
 8000a6c:	2201      	movs	r2, #1
 8000a6e:	2100      	movs	r1, #0
 8000a70:	2024      	movs	r0, #36	@ 0x24
 8000a72:	f001 fcf0 	bl	8002456 <dwt_write32bitoffsetreg>
 8000a76:	490c      	ldr	r1, [pc, #48]	@ (8000aa8 <inittestapplication+0x80>)
 8000a78:	2200      	movs	r2, #0
 8000a7a:	200c      	movs	r0, #12
 8000a7c:	f001 fc69 	bl	8002352 <dwt_writetxdata>
 8000a80:	2201      	movs	r2, #1
 8000a82:	2100      	movs	r1, #0
 8000a84:	200c      	movs	r0, #12
 8000a86:	f001 fd05 	bl	8002494 <dwt_writetxfctrl>
 8000a8a:	0028      	movs	r0, r5
 8000a8c:	f000 fdd6 	bl	800163c <decamutexoff>
 8000a90:	0020      	movs	r0, r4
 8000a92:	bd70      	pop	{r4, r5, r6, pc}
 8000a94:	f7ff ffc6 	bl	8000a24 <Error_Handler>
 8000a98:	f7ff ffc4 	bl	8000a24 <Error_Handler>
 8000a9c:	f7ff ffc2 	bl	8000a24 <Error_Handler>
 8000aa0:	deca0130 	.word	0xdeca0130
 8000aa4:	2000011c 	.word	0x2000011c
 8000aa8:	20000000 	.word	0x20000000

08000aac <main>:
 8000aac:	b570      	push	{r4, r5, r6, lr}
 8000aae:	b082      	sub	sp, #8
 8000ab0:	4a3c      	ldr	r2, [pc, #240]	@ (8000ba4 <main+0xf8>)
 8000ab2:	6853      	ldr	r3, [r2, #4]
 8000ab4:	2607      	movs	r6, #7
 8000ab6:	4333      	orrs	r3, r6
 8000ab8:	6053      	str	r3, [r2, #4]
 8000aba:	4c3b      	ldr	r4, [pc, #236]	@ (8000ba8 <main+0xfc>)
 8000abc:	6b62      	ldr	r2, [r4, #52]	@ 0x34
 8000abe:	2301      	movs	r3, #1
 8000ac0:	431a      	orrs	r2, r3
 8000ac2:	6362      	str	r2, [r4, #52]	@ 0x34
 8000ac4:	6b62      	ldr	r2, [r4, #52]	@ 0x34
 8000ac6:	4013      	ands	r3, r2
 8000ac8:	9301      	str	r3, [sp, #4]
 8000aca:	9b01      	ldr	r3, [sp, #4]
 8000acc:	6ba3      	ldr	r3, [r4, #56]	@ 0x38
 8000ace:	2280      	movs	r2, #128	@ 0x80
 8000ad0:	0552      	lsls	r2, r2, #21
 8000ad2:	4313      	orrs	r3, r2
 8000ad4:	63a3      	str	r3, [r4, #56]	@ 0x38
 8000ad6:	6ba3      	ldr	r3, [r4, #56]	@ 0x38
 8000ad8:	4013      	ands	r3, r2
 8000ada:	9300      	str	r3, [sp, #0]
 8000adc:	9b00      	ldr	r3, [sp, #0]
 8000ade:	4933      	ldr	r1, [pc, #204]	@ (8000bac <main+0x100>)
 8000ae0:	6a0b      	ldr	r3, [r1, #32]
 8000ae2:	021b      	lsls	r3, r3, #8
 8000ae4:	0a1b      	lsrs	r3, r3, #8
 8000ae6:	22c0      	movs	r2, #192	@ 0xc0
 8000ae8:	0612      	lsls	r2, r2, #24
 8000aea:	4313      	orrs	r3, r2
 8000aec:	620b      	str	r3, [r1, #32]
 8000aee:	f7ff fef5 	bl	80008dc <SystemClock_Config>
 8000af2:	4d2f      	ldr	r5, [pc, #188]	@ (8000bb0 <main+0x104>)
 8000af4:	602e      	str	r6, [r5, #0]
 8000af6:	68e2      	ldr	r2, [r4, #12]
 8000af8:	4b2e      	ldr	r3, [pc, #184]	@ (8000bb4 <main+0x108>)
 8000afa:	401a      	ands	r2, r3
 8000afc:	2380      	movs	r3, #128	@ 0x80
 8000afe:	021b      	lsls	r3, r3, #8
 8000b00:	4313      	orrs	r3, r2
 8000b02:	60e3      	str	r3, [r4, #12]
 8000b04:	f7ff fc44 	bl	8000390 <MX_GPIO_Init>
 8000b08:	f7ff fbfa 	bl	8000300 <MX_CRC_Init>
 8000b0c:	f7ff fd54 	bl	80005b8 <MX_RTC_Init>
 8000b10:	f7ff fd82 	bl	8000618 <MX_SPI1_Init>
 8000b14:	f7ff fdea 	bl	80006ec <MX_USART2_UART_Init>
 8000b18:	f7ff fc18 	bl	800034c <MX_IWDG_Init>
 8000b1c:	f7ff fe6a 	bl	80007f4 <MX_I2C1_Init>
 8000b20:	682b      	ldr	r3, [r5, #0]
 8000b22:	2204      	movs	r2, #4
 8000b24:	4313      	orrs	r3, r2
 8000b26:	602b      	str	r3, [r5, #0]
 8000b28:	4823      	ldr	r0, [pc, #140]	@ (8000bb8 <main+0x10c>)
 8000b2a:	320c      	adds	r2, #12
 8000b2c:	2100      	movs	r1, #0
 8000b2e:	f003 f927 	bl	8003d80 <memset>
 8000b32:	f000 fd85 	bl	8001640 <reset_DW1000>
 8000b36:	f001 fbb9 	bl	80022ac <load_bssConfig>
 8000b3a:	f7ff ff75 	bl	8000a28 <inittestapplication>
 8000b3e:	2800      	cmp	r0, #0
 8000b40:	db20      	blt.n	8000b84 <main+0xd8>
 8000b42:	4a1d      	ldr	r2, [pc, #116]	@ (8000bb8 <main+0x10c>)
 8000b44:	2301      	movs	r3, #1
 8000b46:	6053      	str	r3, [r2, #4]
 8000b48:	6813      	ldr	r3, [r2, #0]
 8000b4a:	0019      	movs	r1, r3
 8000b4c:	310c      	adds	r1, #12
 8000b4e:	6091      	str	r1, [r2, #8]
 8000b50:	7b19      	ldrb	r1, [r3, #12]
 8000b52:	7b5a      	ldrb	r2, [r3, #13]
 8000b54:	0212      	lsls	r2, r2, #8
 8000b56:	430a      	orrs	r2, r1
 8000b58:	7b99      	ldrb	r1, [r3, #14]
 8000b5a:	0409      	lsls	r1, r1, #16
 8000b5c:	4311      	orrs	r1, r2
 8000b5e:	7bda      	ldrb	r2, [r3, #15]
 8000b60:	0612      	lsls	r2, r2, #24
 8000b62:	430a      	orrs	r2, r1
 8000b64:	7c19      	ldrb	r1, [r3, #16]
 8000b66:	7c58      	ldrb	r0, [r3, #17]
 8000b68:	0200      	lsls	r0, r0, #8
 8000b6a:	4308      	orrs	r0, r1
 8000b6c:	7c99      	ldrb	r1, [r3, #18]
 8000b6e:	0409      	lsls	r1, r1, #16
 8000b70:	4301      	orrs	r1, r0
 8000b72:	7cdb      	ldrb	r3, [r3, #19]
 8000b74:	061b      	lsls	r3, r3, #24
 8000b76:	430b      	orrs	r3, r1
 8000b78:	429a      	cmp	r2, r3
 8000b7a:	d005      	beq.n	8000b88 <main+0xdc>
 8000b7c:	f000 fe1c 	bl	80017b8 <lis3dh_configure_int>
 8000b80:	b662      	cpsie	i
 8000b82:	e009      	b.n	8000b98 <main+0xec>
 8000b84:	f7ff ff4e 	bl	8000a24 <Error_Handler>
 8000b88:	f002 fe94 	bl	80038b4 <lis3dh_powerdown>
 8000b8c:	e7f8      	b.n	8000b80 <main+0xd4>
 8000b8e:	f001 faf7 	bl	8002180 <process_uartmsg>
 8000b92:	2002      	movs	r0, #2
 8000b94:	f000 fdb0 	bl	80016f8 <LEDS_OFF>
 8000b98:	f000 fc70 	bl	800147c <deca_uart_rx_data_ready>
 8000b9c:	2800      	cmp	r0, #0
 8000b9e:	d0fb      	beq.n	8000b98 <main+0xec>
 8000ba0:	e7f5      	b.n	8000b8e <main+0xe2>
 8000ba2:	46c0      	nop			@ (mov r8, r8)
 8000ba4:	40015800 	.word	0x40015800
 8000ba8:	40021000 	.word	0x40021000
 8000bac:	e000ed00 	.word	0xe000ed00
 8000bb0:	e000e010 	.word	0xe000e010
 8000bb4:	ffff7fff 	.word	0xffff7fff
 8000bb8:	2000011c 	.word	0x2000011c

08000bbc <NMI_Handler>:
 8000bbc:	e7fe      	b.n	8000bbc <NMI_Handler>

08000bbe <HardFault_Handler>:
 8000bbe:	e7fe      	b.n	8000bbe <HardFault_Handler>

08000bc0 <SVC_Handler>:
 8000bc0:	4770      	bx	lr

08000bc2 <PendSV_Handler>:
 8000bc2:	4770      	bx	lr

08000bc4 <SysTick_Handler>:
 8000bc4:	b510      	push	{r4, lr}
 8000bc6:	f000 fce3 	bl	8001590 <IncSysTick>
 8000bca:	bd10      	pop	{r4, pc}

08000bcc <RTC_IRQHandler>:
 8000bcc:	4b09      	ldr	r3, [pc, #36]	@ (8000bf4 <RTC_IRQHandler+0x28>)
 8000bce:	68d8      	ldr	r0, [r3, #12]
 8000bd0:	22ff      	movs	r2, #255	@ 0xff
 8000bd2:	4010      	ands	r0, r2
 8000bd4:	4908      	ldr	r1, [pc, #32]	@ (8000bf8 <RTC_IRQHandler+0x2c>)
 8000bd6:	4301      	orrs	r1, r0
 8000bd8:	60d9      	str	r1, [r3, #12]
 8000bda:	68d9      	ldr	r1, [r3, #12]
 8000bdc:	400a      	ands	r2, r1
 8000bde:	4907      	ldr	r1, [pc, #28]	@ (8000bfc <RTC_IRQHandler+0x30>)
 8000be0:	430a      	orrs	r2, r1
 8000be2:	60da      	str	r2, [r3, #12]
 8000be4:	4b06      	ldr	r3, [pc, #24]	@ (8000c00 <RTC_IRQHandler+0x34>)
 8000be6:	2280      	movs	r2, #128	@ 0x80
 8000be8:	0292      	lsls	r2, r2, #10
 8000bea:	615a      	str	r2, [r3, #20]
 8000bec:	2280      	movs	r2, #128	@ 0x80
 8000bee:	0352      	lsls	r2, r2, #13
 8000bf0:	615a      	str	r2, [r3, #20]
 8000bf2:	4770      	bx	lr
 8000bf4:	40002800 	.word	0x40002800
 8000bf8:	fffffb7f 	.word	0xfffffb7f
 8000bfc:	fffffe7f 	.word	0xfffffe7f
 8000c00:	40010400 	.word	0x40010400

08000c04 <EXTI0_1_IRQHandler>:
 8000c04:	b510      	push	{r4, lr}
 8000c06:	4b05      	ldr	r3, [pc, #20]	@ (8000c1c <EXTI0_1_IRQHandler+0x18>)
 8000c08:	695b      	ldr	r3, [r3, #20]
 8000c0a:	07db      	lsls	r3, r3, #31
 8000c0c:	d400      	bmi.n	8000c10 <EXTI0_1_IRQHandler+0xc>
 8000c0e:	bd10      	pop	{r4, pc}
 8000c10:	4b02      	ldr	r3, [pc, #8]	@ (8000c1c <EXTI0_1_IRQHandler+0x18>)
 8000c12:	2201      	movs	r2, #1
 8000c14:	615a      	str	r2, [r3, #20]
 8000c16:	f000 fe15 	bl	8001844 <GPIO_EXTI0_Callback>
 8000c1a:	e7f8      	b.n	8000c0e <EXTI0_1_IRQHandler+0xa>
 8000c1c:	40010400 	.word	0x40010400

08000c20 <EXTI2_3_IRQHandler>:
 8000c20:	b510      	push	{r4, lr}
 8000c22:	4b0a      	ldr	r3, [pc, #40]	@ (8000c4c <EXTI2_3_IRQHandler+0x2c>)
 8000c24:	695b      	ldr	r3, [r3, #20]
 8000c26:	075b      	lsls	r3, r3, #29
 8000c28:	d404      	bmi.n	8000c34 <EXTI2_3_IRQHandler+0x14>
 8000c2a:	4b08      	ldr	r3, [pc, #32]	@ (8000c4c <EXTI2_3_IRQHandler+0x2c>)
 8000c2c:	695b      	ldr	r3, [r3, #20]
 8000c2e:	071b      	lsls	r3, r3, #28
 8000c30:	d406      	bmi.n	8000c40 <EXTI2_3_IRQHandler+0x20>
 8000c32:	bd10      	pop	{r4, pc}
 8000c34:	4b05      	ldr	r3, [pc, #20]	@ (8000c4c <EXTI2_3_IRQHandler+0x2c>)
 8000c36:	2204      	movs	r2, #4
 8000c38:	615a      	str	r2, [r3, #20]
 8000c3a:	f000 fdfd 	bl	8001838 <GPIO_EXTI3_Callback>
 8000c3e:	e7f4      	b.n	8000c2a <EXTI2_3_IRQHandler+0xa>
 8000c40:	4b02      	ldr	r3, [pc, #8]	@ (8000c4c <EXTI2_3_IRQHandler+0x2c>)
 8000c42:	2208      	movs	r2, #8
 8000c44:	615a      	str	r2, [r3, #20]
 8000c46:	f001 ff51 	bl	8002aec <dwt_isr>
 8000c4a:	e7f2      	b.n	8000c32 <EXTI2_3_IRQHandler+0x12>
 8000c4c:	40010400 	.word	0x40010400

08000c50 <EXTI4_15_IRQHandler>:
 8000c50:	b510      	push	{r4, lr}
 8000c52:	4b05      	ldr	r3, [pc, #20]	@ (8000c68 <EXTI4_15_IRQHandler+0x18>)
 8000c54:	695b      	ldr	r3, [r3, #20]
 8000c56:	069b      	lsls	r3, r3, #26
 8000c58:	d400      	bmi.n	8000c5c <EXTI4_15_IRQHandler+0xc>
 8000c5a:	bd10      	pop	{r4, pc}
 8000c5c:	4b02      	ldr	r3, [pc, #8]	@ (8000c68 <EXTI4_15_IRQHandler+0x18>)
 8000c5e:	2220      	movs	r2, #32
 8000c60:	615a      	str	r2, [r3, #20]
 8000c62:	f000 feca 	bl	80019fa <GPIO_EXTI4_15_Callback>
 8000c66:	e7f8      	b.n	8000c5a <EXTI4_15_IRQHandler+0xa>
 8000c68:	40010400 	.word	0x40010400

08000c6c <USART2_IRQHandler>:
 8000c6c:	b510      	push	{r4, lr}
 8000c6e:	f000 fe1b 	bl	80018a8 <UART2_IRQHandler>
 8000c72:	bd10      	pop	{r4, pc}

08000c74 <_sbrk>:
 8000c74:	b510      	push	{r4, lr}
 8000c76:	0003      	movs	r3, r0
 8000c78:	4a0c      	ldr	r2, [pc, #48]	@ (8000cac <_sbrk+0x38>)
 8000c7a:	490d      	ldr	r1, [pc, #52]	@ (8000cb0 <_sbrk+0x3c>)
 8000c7c:	1a52      	subs	r2, r2, r1
 8000c7e:	490d      	ldr	r1, [pc, #52]	@ (8000cb4 <_sbrk+0x40>)
 8000c80:	6809      	ldr	r1, [r1, #0]
 8000c82:	2900      	cmp	r1, #0
 8000c84:	d007      	beq.n	8000c96 <_sbrk+0x22>
 8000c86:	490b      	ldr	r1, [pc, #44]	@ (8000cb4 <_sbrk+0x40>)
 8000c88:	6808      	ldr	r0, [r1, #0]
 8000c8a:	18c3      	adds	r3, r0, r3
 8000c8c:	4293      	cmp	r3, r2
 8000c8e:	d806      	bhi.n	8000c9e <_sbrk+0x2a>
 8000c90:	4a08      	ldr	r2, [pc, #32]	@ (8000cb4 <_sbrk+0x40>)
 8000c92:	6013      	str	r3, [r2, #0]
 8000c94:	bd10      	pop	{r4, pc}
 8000c96:	4907      	ldr	r1, [pc, #28]	@ (8000cb4 <_sbrk+0x40>)
 8000c98:	4807      	ldr	r0, [pc, #28]	@ (8000cb8 <_sbrk+0x44>)
 8000c9a:	6008      	str	r0, [r1, #0]
 8000c9c:	e7f3      	b.n	8000c86 <_sbrk+0x12>
 8000c9e:	f003 f889 	bl	8003db4 <__errno>
 8000ca2:	230c      	movs	r3, #12
 8000ca4:	6003      	str	r3, [r0, #0]
 8000ca6:	2001      	movs	r0, #1
 8000ca8:	4240      	negs	r0, r0
 8000caa:	e7f3      	b.n	8000c94 <_sbrk+0x20>
 8000cac:	20002000 	.word	0x20002000
 8000cb0:	00000400 	.word	0x00000400
 8000cb4:	2000012c 	.word	0x2000012c
 8000cb8:	200005e0 	.word	0x200005e0

08000cbc <SystemInit>:
 8000cbc:	4770      	bx	lr
	...

08000cc0 <Reset_Handler>:
 8000cc0:	480d      	ldr	r0, [pc, #52]	@ (8000cf8 <LoopForever+0x2>)
 8000cc2:	4685      	mov	sp, r0
 8000cc4:	f7ff fffa 	bl	8000cbc <SystemInit>
 8000cc8:	480c      	ldr	r0, [pc, #48]	@ (8000cfc <LoopForever+0x6>)
 8000cca:	490d      	ldr	r1, [pc, #52]	@ (8000d00 <LoopForever+0xa>)
 8000ccc:	4a0d      	ldr	r2, [pc, #52]	@ (8000d04 <LoopForever+0xe>)
 8000cce:	2300      	movs	r3, #0
 8000cd0:	e002      	b.n	8000cd8 <LoopCopyDataInit>

08000cd2 <CopyDataInit>:
 8000cd2:	58d4      	ldr	r4, [r2, r3]
 8000cd4:	50c4      	str	r4, [r0, r3]
 8000cd6:	3304      	adds	r3, #4

08000cd8 <LoopCopyDataInit>:
 8000cd8:	18c4      	adds	r4, r0, r3
 8000cda:	428c      	cmp	r4, r1
 8000cdc:	d3f9      	bcc.n	8000cd2 <CopyDataInit>
 8000cde:	4a0a      	ldr	r2, [pc, #40]	@ (8000d08 <LoopForever+0x12>)
 8000ce0:	4c0a      	ldr	r4, [pc, #40]	@ (8000d0c <LoopForever+0x16>)
 8000ce2:	2300      	movs	r3, #0
 8000ce4:	e001      	b.n	8000cea <LoopFillZerobss>

08000ce6 <FillZerobss>:
 8000ce6:	6013      	str	r3, [r2, #0]
 8000ce8:	3204      	adds	r2, #4

08000cea <LoopFillZerobss>:
 8000cea:	42a2      	cmp	r2, r4
 8000cec:	d3fb      	bcc.n	8000ce6 <FillZerobss>
 8000cee:	f003 f867 	bl	8003dc0 <__libc_init_array>
 8000cf2:	f7ff fedb 	bl	8000aac <main>

08000cf6 <LoopForever>:
 8000cf6:	e7fe      	b.n	8000cf6 <LoopForever>
 8000cf8:	20002000 	.word	0x20002000
 8000cfc:	20000000 	.word	0x20000000
 8000d00:	20000064 	.word	0x20000064
 8000d04:	08005670 	.word	0x08005670
 8000d08:	20000100 	.word	0x20000100
 8000d0c:	200005e0 	.word	0x200005e0

08000d10 <ADC1_COMP_IRQHandler>:
 8000d10:	e7fe      	b.n	8000d10 <ADC1_COMP_IRQHandler>
	...

08000d14 <LL_EXTI_Init>:
 8000d14:	b510      	push	{r4, lr}
 8000d16:	0003      	movs	r3, r0
 8000d18:	7900      	ldrb	r0, [r0, #4]
 8000d1a:	2800      	cmp	r0, #0
 8000d1c:	d04e      	beq.n	8000dbc <LL_EXTI_Init+0xa8>
 8000d1e:	681a      	ldr	r2, [r3, #0]
 8000d20:	2a00      	cmp	r2, #0
 8000d22:	d055      	beq.n	8000dd0 <LL_EXTI_Init+0xbc>
 8000d24:	7958      	ldrb	r0, [r3, #5]
 8000d26:	2801      	cmp	r0, #1
 8000d28:	d01e      	beq.n	8000d68 <LL_EXTI_Init+0x54>
 8000d2a:	2802      	cmp	r0, #2
 8000d2c:	d026      	beq.n	8000d7c <LL_EXTI_Init+0x68>
 8000d2e:	2800      	cmp	r0, #0
 8000d30:	d12e      	bne.n	8000d90 <LL_EXTI_Init+0x7c>
 8000d32:	4929      	ldr	r1, [pc, #164]	@ (8000dd8 <LL_EXTI_Init+0xc4>)
 8000d34:	684c      	ldr	r4, [r1, #4]
 8000d36:	4394      	bics	r4, r2
 8000d38:	604c      	str	r4, [r1, #4]
 8000d3a:	681a      	ldr	r2, [r3, #0]
 8000d3c:	680c      	ldr	r4, [r1, #0]
 8000d3e:	4322      	orrs	r2, r4
 8000d40:	600a      	str	r2, [r1, #0]
 8000d42:	799a      	ldrb	r2, [r3, #6]
 8000d44:	2a00      	cmp	r2, #0
 8000d46:	d042      	beq.n	8000dce <LL_EXTI_Init+0xba>
 8000d48:	2a02      	cmp	r2, #2
 8000d4a:	d023      	beq.n	8000d94 <LL_EXTI_Init+0x80>
 8000d4c:	2a03      	cmp	r2, #3
 8000d4e:	d02b      	beq.n	8000da8 <LL_EXTI_Init+0x94>
 8000d50:	2a01      	cmp	r2, #1
 8000d52:	d13f      	bne.n	8000dd4 <LL_EXTI_Init+0xc0>
 8000d54:	681c      	ldr	r4, [r3, #0]
 8000d56:	4a20      	ldr	r2, [pc, #128]	@ (8000dd8 <LL_EXTI_Init+0xc4>)
 8000d58:	68d1      	ldr	r1, [r2, #12]
 8000d5a:	43a1      	bics	r1, r4
 8000d5c:	60d1      	str	r1, [r2, #12]
 8000d5e:	681b      	ldr	r3, [r3, #0]
 8000d60:	6891      	ldr	r1, [r2, #8]
 8000d62:	430b      	orrs	r3, r1
 8000d64:	6093      	str	r3, [r2, #8]
 8000d66:	e032      	b.n	8000dce <LL_EXTI_Init+0xba>
 8000d68:	491b      	ldr	r1, [pc, #108]	@ (8000dd8 <LL_EXTI_Init+0xc4>)
 8000d6a:	6808      	ldr	r0, [r1, #0]
 8000d6c:	4390      	bics	r0, r2
 8000d6e:	6008      	str	r0, [r1, #0]
 8000d70:	681a      	ldr	r2, [r3, #0]
 8000d72:	6848      	ldr	r0, [r1, #4]
 8000d74:	4302      	orrs	r2, r0
 8000d76:	604a      	str	r2, [r1, #4]
 8000d78:	2000      	movs	r0, #0
 8000d7a:	e7e2      	b.n	8000d42 <LL_EXTI_Init+0x2e>
 8000d7c:	4916      	ldr	r1, [pc, #88]	@ (8000dd8 <LL_EXTI_Init+0xc4>)
 8000d7e:	6808      	ldr	r0, [r1, #0]
 8000d80:	4302      	orrs	r2, r0
 8000d82:	600a      	str	r2, [r1, #0]
 8000d84:	681a      	ldr	r2, [r3, #0]
 8000d86:	6848      	ldr	r0, [r1, #4]
 8000d88:	4302      	orrs	r2, r0
 8000d8a:	604a      	str	r2, [r1, #4]
 8000d8c:	2000      	movs	r0, #0
 8000d8e:	e7d8      	b.n	8000d42 <LL_EXTI_Init+0x2e>
 8000d90:	2001      	movs	r0, #1
 8000d92:	e7d6      	b.n	8000d42 <LL_EXTI_Init+0x2e>
 8000d94:	681c      	ldr	r4, [r3, #0]
 8000d96:	4a10      	ldr	r2, [pc, #64]	@ (8000dd8 <LL_EXTI_Init+0xc4>)
 8000d98:	6891      	ldr	r1, [r2, #8]
 8000d9a:	43a1      	bics	r1, r4
 8000d9c:	6091      	str	r1, [r2, #8]
 8000d9e:	681b      	ldr	r3, [r3, #0]
 8000da0:	68d1      	ldr	r1, [r2, #12]
 8000da2:	430b      	orrs	r3, r1
 8000da4:	60d3      	str	r3, [r2, #12]
 8000da6:	e012      	b.n	8000dce <LL_EXTI_Init+0xba>
 8000da8:	6819      	ldr	r1, [r3, #0]
 8000daa:	4a0b      	ldr	r2, [pc, #44]	@ (8000dd8 <LL_EXTI_Init+0xc4>)
 8000dac:	6894      	ldr	r4, [r2, #8]
 8000dae:	4321      	orrs	r1, r4
 8000db0:	6091      	str	r1, [r2, #8]
 8000db2:	681b      	ldr	r3, [r3, #0]
 8000db4:	68d1      	ldr	r1, [r2, #12]
 8000db6:	430b      	orrs	r3, r1
 8000db8:	60d3      	str	r3, [r2, #12]
 8000dba:	e008      	b.n	8000dce <LL_EXTI_Init+0xba>
 8000dbc:	681c      	ldr	r4, [r3, #0]
 8000dbe:	4a06      	ldr	r2, [pc, #24]	@ (8000dd8 <LL_EXTI_Init+0xc4>)
 8000dc0:	6811      	ldr	r1, [r2, #0]
 8000dc2:	43a1      	bics	r1, r4
 8000dc4:	6011      	str	r1, [r2, #0]
 8000dc6:	6819      	ldr	r1, [r3, #0]
 8000dc8:	6853      	ldr	r3, [r2, #4]
 8000dca:	438b      	bics	r3, r1
 8000dcc:	6053      	str	r3, [r2, #4]
 8000dce:	bd10      	pop	{r4, pc}
 8000dd0:	2000      	movs	r0, #0
 8000dd2:	e7fc      	b.n	8000dce <LL_EXTI_Init+0xba>
 8000dd4:	2001      	movs	r0, #1
 8000dd6:	e7fa      	b.n	8000dce <LL_EXTI_Init+0xba>
 8000dd8:	40010400 	.word	0x40010400

08000ddc <LL_GPIO_Init>:
 8000ddc:	b5f0      	push	{r4, r5, r6, r7, lr}
 8000dde:	2200      	movs	r2, #0
 8000de0:	e016      	b.n	8000e10 <LL_GPIO_Init+0x34>
 8000de2:	690b      	ldr	r3, [r1, #16]
 8000de4:	469c      	mov	ip, r3
 8000de6:	68c4      	ldr	r4, [r0, #12]
 8000de8:	002b      	movs	r3, r5
 8000dea:	436b      	muls	r3, r5
 8000dec:	005e      	lsls	r6, r3, #1
 8000dee:	18f6      	adds	r6, r6, r3
 8000df0:	43f7      	mvns	r7, r6
 8000df2:	43b4      	bics	r4, r6
 8000df4:	4666      	mov	r6, ip
 8000df6:	435e      	muls	r6, r3
 8000df8:	4334      	orrs	r4, r6
 8000dfa:	60c4      	str	r4, [r0, #12]
 8000dfc:	684c      	ldr	r4, [r1, #4]
 8000dfe:	2c02      	cmp	r4, #2
 8000e00:	d026      	beq.n	8000e50 <LL_GPIO_Init+0x74>
 8000e02:	684d      	ldr	r5, [r1, #4]
 8000e04:	6804      	ldr	r4, [r0, #0]
 8000e06:	403c      	ands	r4, r7
 8000e08:	436b      	muls	r3, r5
 8000e0a:	4323      	orrs	r3, r4
 8000e0c:	6003      	str	r3, [r0, #0]
 8000e0e:	3201      	adds	r2, #1
 8000e10:	680c      	ldr	r4, [r1, #0]
 8000e12:	0023      	movs	r3, r4
 8000e14:	40d3      	lsrs	r3, r2
 8000e16:	d03b      	beq.n	8000e90 <LL_GPIO_Init+0xb4>
 8000e18:	2301      	movs	r3, #1
 8000e1a:	4093      	lsls	r3, r2
 8000e1c:	0025      	movs	r5, r4
 8000e1e:	401d      	ands	r5, r3
 8000e20:	421c      	tst	r4, r3
 8000e22:	d0f4      	beq.n	8000e0e <LL_GPIO_Init+0x32>
 8000e24:	684b      	ldr	r3, [r1, #4]
 8000e26:	3b01      	subs	r3, #1
 8000e28:	2b01      	cmp	r3, #1
 8000e2a:	d8da      	bhi.n	8000de2 <LL_GPIO_Init+0x6>
 8000e2c:	688f      	ldr	r7, [r1, #8]
 8000e2e:	6883      	ldr	r3, [r0, #8]
 8000e30:	002c      	movs	r4, r5
 8000e32:	436c      	muls	r4, r5
 8000e34:	0066      	lsls	r6, r4, #1
 8000e36:	1936      	adds	r6, r6, r4
 8000e38:	43b3      	bics	r3, r6
 8000e3a:	437c      	muls	r4, r7
 8000e3c:	4323      	orrs	r3, r4
 8000e3e:	6083      	str	r3, [r0, #8]
 8000e40:	680e      	ldr	r6, [r1, #0]
 8000e42:	68cc      	ldr	r4, [r1, #12]
 8000e44:	6843      	ldr	r3, [r0, #4]
 8000e46:	43b3      	bics	r3, r6
 8000e48:	4374      	muls	r4, r6
 8000e4a:	4323      	orrs	r3, r4
 8000e4c:	6043      	str	r3, [r0, #4]
 8000e4e:	e7c8      	b.n	8000de2 <LL_GPIO_Init+0x6>
 8000e50:	2dff      	cmp	r5, #255	@ 0xff
 8000e52:	d80d      	bhi.n	8000e70 <LL_GPIO_Init+0x94>
 8000e54:	694c      	ldr	r4, [r1, #20]
 8000e56:	46a4      	mov	ip, r4
 8000e58:	6a06      	ldr	r6, [r0, #32]
 8000e5a:	001c      	movs	r4, r3
 8000e5c:	436c      	muls	r4, r5
 8000e5e:	436c      	muls	r4, r5
 8000e60:	0125      	lsls	r5, r4, #4
 8000e62:	1b2d      	subs	r5, r5, r4
 8000e64:	43ae      	bics	r6, r5
 8000e66:	4665      	mov	r5, ip
 8000e68:	436c      	muls	r4, r5
 8000e6a:	4334      	orrs	r4, r6
 8000e6c:	6204      	str	r4, [r0, #32]
 8000e6e:	e7c8      	b.n	8000e02 <LL_GPIO_Init+0x26>
 8000e70:	694c      	ldr	r4, [r1, #20]
 8000e72:	46a4      	mov	ip, r4
 8000e74:	6a46      	ldr	r6, [r0, #36]	@ 0x24
 8000e76:	0a2d      	lsrs	r5, r5, #8
 8000e78:	002c      	movs	r4, r5
 8000e7a:	436c      	muls	r4, r5
 8000e7c:	436c      	muls	r4, r5
 8000e7e:	436c      	muls	r4, r5
 8000e80:	0125      	lsls	r5, r4, #4
 8000e82:	1b2d      	subs	r5, r5, r4
 8000e84:	43ae      	bics	r6, r5
 8000e86:	4665      	mov	r5, ip
 8000e88:	436c      	muls	r4, r5
 8000e8a:	4334      	orrs	r4, r6
 8000e8c:	6244      	str	r4, [r0, #36]	@ 0x24
 8000e8e:	e7b8      	b.n	8000e02 <LL_GPIO_Init+0x26>
 8000e90:	2000      	movs	r0, #0
 8000e92:	bdf0      	pop	{r4, r5, r6, r7, pc}

08000e94 <LL_I2C_Init>:
 8000e94:	b570      	push	{r4, r5, r6, lr}
 8000e96:	6803      	ldr	r3, [r0, #0]
 8000e98:	2501      	movs	r5, #1
 8000e9a:	43ab      	bics	r3, r5
 8000e9c:	6003      	str	r3, [r0, #0]
 8000e9e:	688a      	ldr	r2, [r1, #8]
 8000ea0:	68cc      	ldr	r4, [r1, #12]
 8000ea2:	6803      	ldr	r3, [r0, #0]
 8000ea4:	4e16      	ldr	r6, [pc, #88]	@ (8000f00 <LL_I2C_Init+0x6c>)
 8000ea6:	4033      	ands	r3, r6
 8000ea8:	0224      	lsls	r4, r4, #8
 8000eaa:	4322      	orrs	r2, r4
 8000eac:	4313      	orrs	r3, r2
 8000eae:	6003      	str	r3, [r0, #0]
 8000eb0:	684b      	ldr	r3, [r1, #4]
 8000eb2:	6103      	str	r3, [r0, #16]
 8000eb4:	6803      	ldr	r3, [r0, #0]
 8000eb6:	432b      	orrs	r3, r5
 8000eb8:	6003      	str	r3, [r0, #0]
 8000eba:	6883      	ldr	r3, [r0, #8]
 8000ebc:	4a11      	ldr	r2, [pc, #68]	@ (8000f04 <LL_I2C_Init+0x70>)
 8000ebe:	4013      	ands	r3, r2
 8000ec0:	6083      	str	r3, [r0, #8]
 8000ec2:	690a      	ldr	r2, [r1, #16]
 8000ec4:	698c      	ldr	r4, [r1, #24]
 8000ec6:	6883      	ldr	r3, [r0, #8]
 8000ec8:	0adb      	lsrs	r3, r3, #11
 8000eca:	02db      	lsls	r3, r3, #11
 8000ecc:	4322      	orrs	r2, r4
 8000ece:	4313      	orrs	r3, r2
 8000ed0:	6083      	str	r3, [r0, #8]
 8000ed2:	690b      	ldr	r3, [r1, #16]
 8000ed4:	2b00      	cmp	r3, #0
 8000ed6:	d004      	beq.n	8000ee2 <LL_I2C_Init+0x4e>
 8000ed8:	6882      	ldr	r2, [r0, #8]
 8000eda:	2380      	movs	r3, #128	@ 0x80
 8000edc:	021b      	lsls	r3, r3, #8
 8000ede:	4313      	orrs	r3, r2
 8000ee0:	6083      	str	r3, [r0, #8]
 8000ee2:	680b      	ldr	r3, [r1, #0]
 8000ee4:	6802      	ldr	r2, [r0, #0]
 8000ee6:	4c08      	ldr	r4, [pc, #32]	@ (8000f08 <LL_I2C_Init+0x74>)
 8000ee8:	4022      	ands	r2, r4
 8000eea:	4313      	orrs	r3, r2
 8000eec:	6003      	str	r3, [r0, #0]
 8000eee:	694b      	ldr	r3, [r1, #20]
 8000ef0:	6842      	ldr	r2, [r0, #4]
 8000ef2:	4904      	ldr	r1, [pc, #16]	@ (8000f04 <LL_I2C_Init+0x70>)
 8000ef4:	400a      	ands	r2, r1
 8000ef6:	4313      	orrs	r3, r2
 8000ef8:	6043      	str	r3, [r0, #4]
 8000efa:	2000      	movs	r0, #0
 8000efc:	bd70      	pop	{r4, r5, r6, pc}
 8000efe:	46c0      	nop			@ (mov r8, r8)
 8000f00:	ffffe0ff 	.word	0xffffe0ff
 8000f04:	ffff7fff 	.word	0xffff7fff
 8000f08:	ffcfffff 	.word	0xffcfffff

08000f0c <RCC_GetHCLKClockFreq>:
 8000f0c:	4b04      	ldr	r3, [pc, #16]	@ (8000f20 <RCC_GetHCLKClockFreq+0x14>)
 8000f0e:	68da      	ldr	r2, [r3, #12]
 8000f10:	0912      	lsrs	r2, r2, #4
 8000f12:	230f      	movs	r3, #15
 8000f14:	4013      	ands	r3, r2
 8000f16:	4a03      	ldr	r2, [pc, #12]	@ (8000f24 <RCC_GetHCLKClockFreq+0x18>)
 8000f18:	5cd3      	ldrb	r3, [r2, r3]
 8000f1a:	40d8      	lsrs	r0, r3
 8000f1c:	4770      	bx	lr
 8000f1e:	46c0      	nop			@ (mov r8, r8)
 8000f20:	40021000 	.word	0x40021000
 8000f24:	08004eb4 	.word	0x08004eb4

08000f28 <RCC_GetPCLK1ClockFreq>:
 8000f28:	4b04      	ldr	r3, [pc, #16]	@ (8000f3c <RCC_GetPCLK1ClockFreq+0x14>)
 8000f2a:	68da      	ldr	r2, [r3, #12]
 8000f2c:	0a12      	lsrs	r2, r2, #8
 8000f2e:	2307      	movs	r3, #7
 8000f30:	4013      	ands	r3, r2
 8000f32:	4a03      	ldr	r2, [pc, #12]	@ (8000f40 <RCC_GetPCLK1ClockFreq+0x18>)
 8000f34:	5cd3      	ldrb	r3, [r2, r3]
 8000f36:	40d8      	lsrs	r0, r3
 8000f38:	4770      	bx	lr
 8000f3a:	46c0      	nop			@ (mov r8, r8)
 8000f3c:	40021000 	.word	0x40021000
 8000f40:	08004eac 	.word	0x08004eac

08000f44 <RCC_PLL_GetFreqDomain_SYS>:
 8000f44:	b510      	push	{r4, lr}
 8000f46:	4b0e      	ldr	r3, [pc, #56]	@ (8000f80 <RCC_PLL_GetFreqDomain_SYS+0x3c>)
 8000f48:	68db      	ldr	r3, [r3, #12]
 8000f4a:	03db      	lsls	r3, r3, #15
 8000f4c:	d405      	bmi.n	8000f5a <RCC_PLL_GetFreqDomain_SYS+0x16>
 8000f4e:	4b0c      	ldr	r3, [pc, #48]	@ (8000f80 <RCC_PLL_GetFreqDomain_SYS+0x3c>)
 8000f50:	681b      	ldr	r3, [r3, #0]
 8000f52:	06db      	lsls	r3, r3, #27
 8000f54:	d512      	bpl.n	8000f7c <RCC_PLL_GetFreqDomain_SYS+0x38>
 8000f56:	480b      	ldr	r0, [pc, #44]	@ (8000f84 <RCC_PLL_GetFreqDomain_SYS+0x40>)
 8000f58:	e000      	b.n	8000f5c <RCC_PLL_GetFreqDomain_SYS+0x18>
 8000f5a:	480b      	ldr	r0, [pc, #44]	@ (8000f88 <RCC_PLL_GetFreqDomain_SYS+0x44>)
 8000f5c:	4908      	ldr	r1, [pc, #32]	@ (8000f80 <RCC_PLL_GetFreqDomain_SYS+0x3c>)
 8000f5e:	68ca      	ldr	r2, [r1, #12]
 8000f60:	0c92      	lsrs	r2, r2, #18
 8000f62:	230f      	movs	r3, #15
 8000f64:	4013      	ands	r3, r2
 8000f66:	4a09      	ldr	r2, [pc, #36]	@ (8000f8c <RCC_PLL_GetFreqDomain_SYS+0x48>)
 8000f68:	5cd3      	ldrb	r3, [r2, r3]
 8000f6a:	4358      	muls	r0, r3
 8000f6c:	68cb      	ldr	r3, [r1, #12]
 8000f6e:	0d9b      	lsrs	r3, r3, #22
 8000f70:	2103      	movs	r1, #3
 8000f72:	4019      	ands	r1, r3
 8000f74:	3101      	adds	r1, #1
 8000f76:	f7ff f937 	bl	80001e8 <__udivsi3>
 8000f7a:	bd10      	pop	{r4, pc}
 8000f7c:	4804      	ldr	r0, [pc, #16]	@ (8000f90 <RCC_PLL_GetFreqDomain_SYS+0x4c>)
 8000f7e:	e7ed      	b.n	8000f5c <RCC_PLL_GetFreqDomain_SYS+0x18>
 8000f80:	40021000 	.word	0x40021000
 8000f84:	003d0900 	.word	0x003d0900
 8000f88:	007a1200 	.word	0x007a1200
 8000f8c:	08004ea0 	.word	0x08004ea0
 8000f90:	00f42400 	.word	0x00f42400

08000f94 <RCC_GetSystemClockFreq>:
 8000f94:	b510      	push	{r4, lr}
 8000f96:	4b17      	ldr	r3, [pc, #92]	@ (8000ff4 <RCC_GetSystemClockFreq+0x60>)
 8000f98:	68da      	ldr	r2, [r3, #12]
 8000f9a:	230c      	movs	r3, #12
 8000f9c:	4013      	ands	r3, r2
 8000f9e:	2b08      	cmp	r3, #8
 8000fa0:	d023      	beq.n	8000fea <RCC_GetSystemClockFreq+0x56>
 8000fa2:	d809      	bhi.n	8000fb8 <RCC_GetSystemClockFreq+0x24>
 8000fa4:	2b00      	cmp	r3, #0
 8000fa6:	d00c      	beq.n	8000fc2 <RCC_GetSystemClockFreq+0x2e>
 8000fa8:	2b04      	cmp	r3, #4
 8000faa:	d114      	bne.n	8000fd6 <RCC_GetSystemClockFreq+0x42>
 8000fac:	4b11      	ldr	r3, [pc, #68]	@ (8000ff4 <RCC_GetSystemClockFreq+0x60>)
 8000fae:	681b      	ldr	r3, [r3, #0]
 8000fb0:	06db      	lsls	r3, r3, #27
 8000fb2:	d51c      	bpl.n	8000fee <RCC_GetSystemClockFreq+0x5a>
 8000fb4:	4810      	ldr	r0, [pc, #64]	@ (8000ff8 <RCC_GetSystemClockFreq+0x64>)
 8000fb6:	e00d      	b.n	8000fd4 <RCC_GetSystemClockFreq+0x40>
 8000fb8:	2b0c      	cmp	r3, #12
 8000fba:	d10c      	bne.n	8000fd6 <RCC_GetSystemClockFreq+0x42>
 8000fbc:	f7ff ffc2 	bl	8000f44 <RCC_PLL_GetFreqDomain_SYS>
 8000fc0:	e008      	b.n	8000fd4 <RCC_GetSystemClockFreq+0x40>
 8000fc2:	4b0c      	ldr	r3, [pc, #48]	@ (8000ff4 <RCC_GetSystemClockFreq+0x60>)
 8000fc4:	685a      	ldr	r2, [r3, #4]
 8000fc6:	0b52      	lsrs	r2, r2, #13
 8000fc8:	2307      	movs	r3, #7
 8000fca:	4013      	ands	r3, r2
 8000fcc:	3301      	adds	r3, #1
 8000fce:	2080      	movs	r0, #128	@ 0x80
 8000fd0:	0200      	lsls	r0, r0, #8
 8000fd2:	4098      	lsls	r0, r3
 8000fd4:	bd10      	pop	{r4, pc}
 8000fd6:	4b07      	ldr	r3, [pc, #28]	@ (8000ff4 <RCC_GetSystemClockFreq+0x60>)
 8000fd8:	685a      	ldr	r2, [r3, #4]
 8000fda:	0b52      	lsrs	r2, r2, #13
 8000fdc:	2307      	movs	r3, #7
 8000fde:	4013      	ands	r3, r2
 8000fe0:	3301      	adds	r3, #1
 8000fe2:	2080      	movs	r0, #128	@ 0x80
 8000fe4:	0200      	lsls	r0, r0, #8
 8000fe6:	4098      	lsls	r0, r3
 8000fe8:	e7f4      	b.n	8000fd4 <RCC_GetSystemClockFreq+0x40>
 8000fea:	4804      	ldr	r0, [pc, #16]	@ (8000ffc <RCC_GetSystemClockFreq+0x68>)
 8000fec:	e7f2      	b.n	8000fd4 <RCC_GetSystemClockFreq+0x40>
 8000fee:	4804      	ldr	r0, [pc, #16]	@ (8001000 <RCC_GetSystemClockFreq+0x6c>)
 8000ff0:	e7f0      	b.n	8000fd4 <RCC_GetSystemClockFreq+0x40>
 8000ff2:	46c0      	nop			@ (mov r8, r8)
 8000ff4:	40021000 	.word	0x40021000
 8000ff8:	003d0900 	.word	0x003d0900
 8000ffc:	007a1200 	.word	0x007a1200
 8001000:	00f42400 	.word	0x00f42400

08001004 <LL_RCC_GetUSARTClockFreq>:
 8001004:	b510      	push	{r4, lr}
 8001006:	280c      	cmp	r0, #12
 8001008:	d001      	beq.n	800100e <LL_RCC_GetUSARTClockFreq+0xa>
 800100a:	2000      	movs	r0, #0
 800100c:	bd10      	pop	{r4, pc}
 800100e:	4b19      	ldr	r3, [pc, #100]	@ (8001074 <LL_RCC_GetUSARTClockFreq+0x70>)
 8001010:	6cdb      	ldr	r3, [r3, #76]	@ 0x4c
 8001012:	4003      	ands	r3, r0
 8001014:	0400      	lsls	r0, r0, #16
 8001016:	4303      	orrs	r3, r0
 8001018:	4a17      	ldr	r2, [pc, #92]	@ (8001078 <LL_RCC_GetUSARTClockFreq+0x74>)
 800101a:	4293      	cmp	r3, r2
 800101c:	d008      	beq.n	8001030 <LL_RCC_GetUSARTClockFreq+0x2c>
 800101e:	4a17      	ldr	r2, [pc, #92]	@ (800107c <LL_RCC_GetUSARTClockFreq+0x78>)
 8001020:	4293      	cmp	r3, r2
 8001022:	d012      	beq.n	800104a <LL_RCC_GetUSARTClockFreq+0x46>
 8001024:	4a16      	ldr	r2, [pc, #88]	@ (8001080 <LL_RCC_GetUSARTClockFreq+0x7c>)
 8001026:	4293      	cmp	r3, r2
 8001028:	d11a      	bne.n	8001060 <LL_RCC_GetUSARTClockFreq+0x5c>
 800102a:	f7ff ffb3 	bl	8000f94 <RCC_GetSystemClockFreq>
 800102e:	e7ed      	b.n	800100c <LL_RCC_GetUSARTClockFreq+0x8>
 8001030:	4b10      	ldr	r3, [pc, #64]	@ (8001074 <LL_RCC_GetUSARTClockFreq+0x70>)
 8001032:	681b      	ldr	r3, [r3, #0]
 8001034:	2204      	movs	r2, #4
 8001036:	0010      	movs	r0, r2
 8001038:	4018      	ands	r0, r3
 800103a:	421a      	tst	r2, r3
 800103c:	d0e6      	beq.n	800100c <LL_RCC_GetUSARTClockFreq+0x8>
 800103e:	4b0d      	ldr	r3, [pc, #52]	@ (8001074 <LL_RCC_GetUSARTClockFreq+0x70>)
 8001040:	681b      	ldr	r3, [r3, #0]
 8001042:	06db      	lsls	r3, r3, #27
 8001044:	d413      	bmi.n	800106e <LL_RCC_GetUSARTClockFreq+0x6a>
 8001046:	480f      	ldr	r0, [pc, #60]	@ (8001084 <LL_RCC_GetUSARTClockFreq+0x80>)
 8001048:	e7e0      	b.n	800100c <LL_RCC_GetUSARTClockFreq+0x8>
 800104a:	4b0a      	ldr	r3, [pc, #40]	@ (8001074 <LL_RCC_GetUSARTClockFreq+0x70>)
 800104c:	6d1a      	ldr	r2, [r3, #80]	@ 0x50
 800104e:	2380      	movs	r3, #128	@ 0x80
 8001050:	009b      	lsls	r3, r3, #2
 8001052:	0010      	movs	r0, r2
 8001054:	4018      	ands	r0, r3
 8001056:	421a      	tst	r2, r3
 8001058:	d0d8      	beq.n	800100c <LL_RCC_GetUSARTClockFreq+0x8>
 800105a:	2080      	movs	r0, #128	@ 0x80
 800105c:	0200      	lsls	r0, r0, #8
 800105e:	e7d5      	b.n	800100c <LL_RCC_GetUSARTClockFreq+0x8>
 8001060:	f7ff ff98 	bl	8000f94 <RCC_GetSystemClockFreq>
 8001064:	f7ff ff52 	bl	8000f0c <RCC_GetHCLKClockFreq>
 8001068:	f7ff ff5e 	bl	8000f28 <RCC_GetPCLK1ClockFreq>
 800106c:	e7ce      	b.n	800100c <LL_RCC_GetUSARTClockFreq+0x8>
 800106e:	4806      	ldr	r0, [pc, #24]	@ (8001088 <LL_RCC_GetUSARTClockFreq+0x84>)
 8001070:	e7cc      	b.n	800100c <LL_RCC_GetUSARTClockFreq+0x8>
 8001072:	46c0      	nop			@ (mov r8, r8)
 8001074:	40021000 	.word	0x40021000
 8001078:	000c0008 	.word	0x000c0008
 800107c:	000c000c 	.word	0x000c000c
 8001080:	000c0004 	.word	0x000c0004
 8001084:	00f42400 	.word	0x00f42400
 8001088:	003d0900 	.word	0x003d0900

0800108c <LL_RTC_EnterInitMode>:
 800108c:	b510      	push	{r4, lr}
 800108e:	b082      	sub	sp, #8
 8001090:	0004      	movs	r4, r0
 8001092:	23fa      	movs	r3, #250	@ 0xfa
 8001094:	009b      	lsls	r3, r3, #2
 8001096:	9301      	str	r3, [sp, #4]
 8001098:	68c3      	ldr	r3, [r0, #12]
 800109a:	065b      	lsls	r3, r3, #25
 800109c:	d423      	bmi.n	80010e6 <LL_RTC_EnterInitMode+0x5a>
 800109e:	2301      	movs	r3, #1
 80010a0:	425b      	negs	r3, r3
 80010a2:	60c3      	str	r3, [r0, #12]
 80010a4:	68c3      	ldr	r3, [r0, #12]
 80010a6:	2240      	movs	r2, #64	@ 0x40
 80010a8:	0011      	movs	r1, r2
 80010aa:	4019      	ands	r1, r3
 80010ac:	421a      	tst	r2, r3
 80010ae:	d118      	bne.n	80010e2 <LL_RTC_EnterInitMode+0x56>
 80010b0:	2000      	movs	r0, #0
 80010b2:	9b01      	ldr	r3, [sp, #4]
 80010b4:	2b00      	cmp	r3, #0
 80010b6:	d017      	beq.n	80010e8 <LL_RTC_EnterInitMode+0x5c>
 80010b8:	2901      	cmp	r1, #1
 80010ba:	d015      	beq.n	80010e8 <LL_RTC_EnterInitMode+0x5c>
 80010bc:	4b0b      	ldr	r3, [pc, #44]	@ (80010ec <LL_RTC_EnterInitMode+0x60>)
 80010be:	681b      	ldr	r3, [r3, #0]
 80010c0:	03db      	lsls	r3, r3, #15
 80010c2:	d502      	bpl.n	80010ca <LL_RTC_EnterInitMode+0x3e>
 80010c4:	9b01      	ldr	r3, [sp, #4]
 80010c6:	3b01      	subs	r3, #1
 80010c8:	9301      	str	r3, [sp, #4]
 80010ca:	68e3      	ldr	r3, [r4, #12]
 80010cc:	2240      	movs	r2, #64	@ 0x40
 80010ce:	0011      	movs	r1, r2
 80010d0:	4019      	ands	r1, r3
 80010d2:	421a      	tst	r2, r3
 80010d4:	d000      	beq.n	80010d8 <LL_RTC_EnterInitMode+0x4c>
 80010d6:	2101      	movs	r1, #1
 80010d8:	9b01      	ldr	r3, [sp, #4]
 80010da:	2b00      	cmp	r3, #0
 80010dc:	d1e9      	bne.n	80010b2 <LL_RTC_EnterInitMode+0x26>
 80010de:	2001      	movs	r0, #1
 80010e0:	e7e7      	b.n	80010b2 <LL_RTC_EnterInitMode+0x26>
 80010e2:	2101      	movs	r1, #1
 80010e4:	e7e4      	b.n	80010b0 <LL_RTC_EnterInitMode+0x24>
 80010e6:	2000      	movs	r0, #0
 80010e8:	b002      	add	sp, #8
 80010ea:	bd10      	pop	{r4, pc}
 80010ec:	e000e010 	.word	0xe000e010

080010f0 <LL_RTC_Init>:
 80010f0:	b570      	push	{r4, r5, r6, lr}
 80010f2:	0004      	movs	r4, r0
 80010f4:	000d      	movs	r5, r1
 80010f6:	23ca      	movs	r3, #202	@ 0xca
 80010f8:	6243      	str	r3, [r0, #36]	@ 0x24
 80010fa:	3b77      	subs	r3, #119	@ 0x77
 80010fc:	6243      	str	r3, [r0, #36]	@ 0x24
 80010fe:	f7ff ffc5 	bl	800108c <LL_RTC_EnterInitMode>
 8001102:	2801      	cmp	r0, #1
 8001104:	d016      	beq.n	8001134 <LL_RTC_Init+0x44>
 8001106:	682b      	ldr	r3, [r5, #0]
 8001108:	68a2      	ldr	r2, [r4, #8]
 800110a:	2140      	movs	r1, #64	@ 0x40
 800110c:	438a      	bics	r2, r1
 800110e:	4313      	orrs	r3, r2
 8001110:	60a3      	str	r3, [r4, #8]
 8001112:	68aa      	ldr	r2, [r5, #8]
 8001114:	6923      	ldr	r3, [r4, #16]
 8001116:	0bdb      	lsrs	r3, r3, #15
 8001118:	03db      	lsls	r3, r3, #15
 800111a:	4313      	orrs	r3, r2
 800111c:	6123      	str	r3, [r4, #16]
 800111e:	686a      	ldr	r2, [r5, #4]
 8001120:	6923      	ldr	r3, [r4, #16]
 8001122:	4906      	ldr	r1, [pc, #24]	@ (800113c <LL_RTC_Init+0x4c>)
 8001124:	400b      	ands	r3, r1
 8001126:	0412      	lsls	r2, r2, #16
 8001128:	4313      	orrs	r3, r2
 800112a:	6123      	str	r3, [r4, #16]
 800112c:	2381      	movs	r3, #129	@ 0x81
 800112e:	425b      	negs	r3, r3
 8001130:	60e3      	str	r3, [r4, #12]
 8001132:	2000      	movs	r0, #0
 8001134:	23ff      	movs	r3, #255	@ 0xff
 8001136:	6263      	str	r3, [r4, #36]	@ 0x24
 8001138:	bd70      	pop	{r4, r5, r6, pc}
 800113a:	46c0      	nop			@ (mov r8, r8)
 800113c:	ff80ffff 	.word	0xff80ffff

08001140 <LL_SPI_Init>:
 8001140:	b510      	push	{r4, lr}
 8001142:	6803      	ldr	r3, [r0, #0]
 8001144:	065b      	lsls	r3, r3, #25
 8001146:	d428      	bmi.n	800119a <LL_SPI_Init+0x5a>
 8001148:	6803      	ldr	r3, [r0, #0]
 800114a:	4a15      	ldr	r2, [pc, #84]	@ (80011a0 <LL_SPI_Init+0x60>)
 800114c:	401a      	ands	r2, r3
 800114e:	680b      	ldr	r3, [r1, #0]
 8001150:	684c      	ldr	r4, [r1, #4]
 8001152:	4323      	orrs	r3, r4
 8001154:	688c      	ldr	r4, [r1, #8]
 8001156:	4323      	orrs	r3, r4
 8001158:	68cc      	ldr	r4, [r1, #12]
 800115a:	4323      	orrs	r3, r4
 800115c:	690c      	ldr	r4, [r1, #16]
 800115e:	4323      	orrs	r3, r4
 8001160:	694c      	ldr	r4, [r1, #20]
 8001162:	4323      	orrs	r3, r4
 8001164:	698c      	ldr	r4, [r1, #24]
 8001166:	4323      	orrs	r3, r4
 8001168:	69cc      	ldr	r4, [r1, #28]
 800116a:	4323      	orrs	r3, r4
 800116c:	6a0c      	ldr	r4, [r1, #32]
 800116e:	4323      	orrs	r3, r4
 8001170:	4313      	orrs	r3, r2
 8001172:	6003      	str	r3, [r0, #0]
 8001174:	6843      	ldr	r3, [r0, #4]
 8001176:	2204      	movs	r2, #4
 8001178:	4393      	bics	r3, r2
 800117a:	8aca      	ldrh	r2, [r1, #22]
 800117c:	4313      	orrs	r3, r2
 800117e:	6043      	str	r3, [r0, #4]
 8001180:	6a0a      	ldr	r2, [r1, #32]
 8001182:	2380      	movs	r3, #128	@ 0x80
 8001184:	019b      	lsls	r3, r3, #6
 8001186:	429a      	cmp	r2, r3
 8001188:	d001      	beq.n	800118e <LL_SPI_Init+0x4e>
 800118a:	2000      	movs	r0, #0
 800118c:	e006      	b.n	800119c <LL_SPI_Init+0x5c>
 800118e:	6a4b      	ldr	r3, [r1, #36]	@ 0x24
 8001190:	041b      	lsls	r3, r3, #16
 8001192:	0c1b      	lsrs	r3, r3, #16
 8001194:	6103      	str	r3, [r0, #16]
 8001196:	2000      	movs	r0, #0
 8001198:	e000      	b.n	800119c <LL_SPI_Init+0x5c>
 800119a:	2001      	movs	r0, #1
 800119c:	bd10      	pop	{r4, pc}
 800119e:	46c0      	nop			@ (mov r8, r8)
 80011a0:	ffff0040 	.word	0xffff0040

080011a4 <LL_USART_SetBaudRate>:
 80011a4:	b570      	push	{r4, r5, r6, lr}
 80011a6:	0005      	movs	r5, r0
 80011a8:	000c      	movs	r4, r1
 80011aa:	0019      	movs	r1, r3
 80011ac:	2380      	movs	r3, #128	@ 0x80
 80011ae:	021b      	lsls	r3, r3, #8
 80011b0:	429a      	cmp	r2, r3
 80011b2:	d007      	beq.n	80011c4 <LL_USART_SetBaudRate+0x20>
 80011b4:	0848      	lsrs	r0, r1, #1
 80011b6:	1900      	adds	r0, r0, r4
 80011b8:	f7ff f816 	bl	80001e8 <__udivsi3>
 80011bc:	0400      	lsls	r0, r0, #16
 80011be:	0c00      	lsrs	r0, r0, #16
 80011c0:	60e8      	str	r0, [r5, #12]
 80011c2:	bd70      	pop	{r4, r5, r6, pc}
 80011c4:	0064      	lsls	r4, r4, #1
 80011c6:	0848      	lsrs	r0, r1, #1
 80011c8:	1820      	adds	r0, r4, r0
 80011ca:	f7ff f80d 	bl	80001e8 <__udivsi3>
 80011ce:	4a04      	ldr	r2, [pc, #16]	@ (80011e0 <LL_USART_SetBaudRate+0x3c>)
 80011d0:	4002      	ands	r2, r0
 80011d2:	0400      	lsls	r0, r0, #16
 80011d4:	0c40      	lsrs	r0, r0, #17
 80011d6:	2307      	movs	r3, #7
 80011d8:	4003      	ands	r3, r0
 80011da:	4313      	orrs	r3, r2
 80011dc:	60eb      	str	r3, [r5, #12]
 80011de:	e7f0      	b.n	80011c2 <LL_USART_SetBaudRate+0x1e>
 80011e0:	0000fff0 	.word	0x0000fff0

080011e4 <LL_USART_Init>:
 80011e4:	b570      	push	{r4, r5, r6, lr}
 80011e6:	0004      	movs	r4, r0
 80011e8:	000d      	movs	r5, r1
 80011ea:	6803      	ldr	r3, [r0, #0]
 80011ec:	07db      	lsls	r3, r3, #31
 80011ee:	d42d      	bmi.n	800124c <LL_USART_Init+0x68>
 80011f0:	6803      	ldr	r3, [r0, #0]
 80011f2:	4a18      	ldr	r2, [pc, #96]	@ (8001254 <LL_USART_Init+0x70>)
 80011f4:	401a      	ands	r2, r3
 80011f6:	684b      	ldr	r3, [r1, #4]
 80011f8:	68c9      	ldr	r1, [r1, #12]
 80011fa:	430b      	orrs	r3, r1
 80011fc:	6929      	ldr	r1, [r5, #16]
 80011fe:	430b      	orrs	r3, r1
 8001200:	69a9      	ldr	r1, [r5, #24]
 8001202:	430b      	orrs	r3, r1
 8001204:	4313      	orrs	r3, r2
 8001206:	6003      	str	r3, [r0, #0]
 8001208:	68ab      	ldr	r3, [r5, #8]
 800120a:	6842      	ldr	r2, [r0, #4]
 800120c:	4912      	ldr	r1, [pc, #72]	@ (8001258 <LL_USART_Init+0x74>)
 800120e:	400a      	ands	r2, r1
 8001210:	4313      	orrs	r3, r2
 8001212:	6043      	str	r3, [r0, #4]
 8001214:	696b      	ldr	r3, [r5, #20]
 8001216:	6882      	ldr	r2, [r0, #8]
 8001218:	4910      	ldr	r1, [pc, #64]	@ (800125c <LL_USART_Init+0x78>)
 800121a:	400a      	ands	r2, r1
 800121c:	4313      	orrs	r3, r2
 800121e:	6083      	str	r3, [r0, #8]
 8001220:	4b0f      	ldr	r3, [pc, #60]	@ (8001260 <LL_USART_Init+0x7c>)
 8001222:	4298      	cmp	r0, r3
 8001224:	d001      	beq.n	800122a <LL_USART_Init+0x46>
 8001226:	2001      	movs	r0, #1
 8001228:	e011      	b.n	800124e <LL_USART_Init+0x6a>
 800122a:	200c      	movs	r0, #12
 800122c:	f7ff feea 	bl	8001004 <LL_RCC_GetUSARTClockFreq>
 8001230:	2800      	cmp	r0, #0
 8001232:	d00d      	beq.n	8001250 <LL_USART_Init+0x6c>
 8001234:	682b      	ldr	r3, [r5, #0]
 8001236:	2b00      	cmp	r3, #0
 8001238:	d101      	bne.n	800123e <LL_USART_Init+0x5a>
 800123a:	2001      	movs	r0, #1
 800123c:	e007      	b.n	800124e <LL_USART_Init+0x6a>
 800123e:	69aa      	ldr	r2, [r5, #24]
 8001240:	0001      	movs	r1, r0
 8001242:	0020      	movs	r0, r4
 8001244:	f7ff ffae 	bl	80011a4 <LL_USART_SetBaudRate>
 8001248:	2000      	movs	r0, #0
 800124a:	e000      	b.n	800124e <LL_USART_Init+0x6a>
 800124c:	2001      	movs	r0, #1
 800124e:	bd70      	pop	{r4, r5, r6, pc}
 8001250:	2001      	movs	r0, #1
 8001252:	e7fc      	b.n	800124e <LL_USART_Init+0x6a>
 8001254:	efff69f3 	.word	0xefff69f3
 8001258:	ffffcfff 	.word	0xffffcfff
 800125c:	fffffcff 	.word	0xfffffcff
 8001260:	40004400 	.word	0x40004400

08001264 <LL_Init1msTick>:
 8001264:	b510      	push	{r4, lr}
 8001266:	21fa      	movs	r1, #250	@ 0xfa
 8001268:	0089      	lsls	r1, r1, #2
 800126a:	f7fe ffbd 	bl	80001e8 <__udivsi3>
 800126e:	3801      	subs	r0, #1
 8001270:	4b03      	ldr	r3, [pc, #12]	@ (8001280 <LL_Init1msTick+0x1c>)
 8001272:	6058      	str	r0, [r3, #4]
 8001274:	2200      	movs	r2, #0
 8001276:	609a      	str	r2, [r3, #8]
 8001278:	3205      	adds	r2, #5
 800127a:	601a      	str	r2, [r3, #0]
 800127c:	bd10      	pop	{r4, pc}
 800127e:	46c0      	nop			@ (mov r8, r8)
 8001280:	e000e010 	.word	0xe000e010

08001284 <LL_mDelay>:
 8001284:	b082      	sub	sp, #8
 8001286:	4b08      	ldr	r3, [pc, #32]	@ (80012a8 <LL_mDelay+0x24>)
 8001288:	681b      	ldr	r3, [r3, #0]
 800128a:	9301      	str	r3, [sp, #4]
 800128c:	9b01      	ldr	r3, [sp, #4]
 800128e:	1c43      	adds	r3, r0, #1
 8001290:	d000      	beq.n	8001294 <LL_mDelay+0x10>
 8001292:	3001      	adds	r0, #1
 8001294:	2800      	cmp	r0, #0
 8001296:	d005      	beq.n	80012a4 <LL_mDelay+0x20>
 8001298:	4b03      	ldr	r3, [pc, #12]	@ (80012a8 <LL_mDelay+0x24>)
 800129a:	681b      	ldr	r3, [r3, #0]
 800129c:	03db      	lsls	r3, r3, #15
 800129e:	d5f9      	bpl.n	8001294 <LL_mDelay+0x10>
 80012a0:	3801      	subs	r0, #1
 80012a2:	e7f7      	b.n	8001294 <LL_mDelay+0x10>
 80012a4:	b002      	add	sp, #8
 80012a6:	4770      	bx	lr
 80012a8:	e000e010 	.word	0xe000e010

080012ac <LL_SetSystemCoreClock>:
 80012ac:	4b01      	ldr	r3, [pc, #4]	@ (80012b4 <LL_SetSystemCoreClock+0x8>)
 80012ae:	6018      	str	r0, [r3, #0]
 80012b0:	4770      	bx	lr
 80012b2:	46c0      	nop			@ (mov r8, r8)
 80012b4:	2000000c 	.word	0x2000000c

080012b8 <deca_sleep>:
 80012b8:	b510      	push	{r4, lr}
 80012ba:	0004      	movs	r4, r0
 80012bc:	f000 f970 	bl	80015a0 <portGetTickCount>
 80012c0:	1904      	adds	r4, r0, r4
 80012c2:	f000 f96d 	bl	80015a0 <portGetTickCount>
 80012c6:	1b00      	subs	r0, r0, r4
 80012c8:	2800      	cmp	r0, #0
 80012ca:	ddfa      	ble.n	80012c2 <deca_sleep+0xa>
 80012cc:	bd10      	pop	{r4, pc}
	...

080012d0 <writetospi>:
 80012d0:	b5f8      	push	{r3, r4, r5, r6, r7, lr}
 80012d2:	0007      	movs	r7, r0
 80012d4:	000e      	movs	r6, r1
 80012d6:	0015      	movs	r5, r2
 80012d8:	001c      	movs	r4, r3
 80012da:	f000 f9ad 	bl	8001638 <decamutexon>
 80012de:	4684      	mov	ip, r0
 80012e0:	4b1f      	ldr	r3, [pc, #124]	@ (8001360 <writetospi+0x90>)
 80012e2:	2201      	movs	r2, #1
 80012e4:	629a      	str	r2, [r3, #40]	@ 0x28
 80012e6:	e00f      	b.n	8001308 <writetospi+0x38>
 80012e8:	2900      	cmp	r1, #0
 80012ea:	d108      	bne.n	80012fe <writetospi+0x2e>
 80012ec:	4b1d      	ldr	r3, [pc, #116]	@ (8001364 <writetospi+0x94>)
 80012ee:	689b      	ldr	r3, [r3, #8]
 80012f0:	2202      	movs	r2, #2
 80012f2:	0011      	movs	r1, r2
 80012f4:	4019      	ands	r1, r3
 80012f6:	421a      	tst	r2, r3
 80012f8:	d0f6      	beq.n	80012e8 <writetospi+0x18>
 80012fa:	2101      	movs	r1, #1
 80012fc:	e7f4      	b.n	80012e8 <writetospi+0x18>
 80012fe:	7832      	ldrb	r2, [r6, #0]
 8001300:	4b18      	ldr	r3, [pc, #96]	@ (8001364 <writetospi+0x94>)
 8001302:	731a      	strb	r2, [r3, #12]
 8001304:	3601      	adds	r6, #1
 8001306:	0007      	movs	r7, r0
 8001308:	1e78      	subs	r0, r7, #1
 800130a:	b280      	uxth	r0, r0
 800130c:	2f00      	cmp	r7, #0
 800130e:	d1ed      	bne.n	80012ec <writetospi+0x1c>
 8001310:	e00f      	b.n	8001332 <writetospi+0x62>
 8001312:	2b00      	cmp	r3, #0
 8001314:	d108      	bne.n	8001328 <writetospi+0x58>
 8001316:	4a13      	ldr	r2, [pc, #76]	@ (8001364 <writetospi+0x94>)
 8001318:	6892      	ldr	r2, [r2, #8]
 800131a:	2102      	movs	r1, #2
 800131c:	000b      	movs	r3, r1
 800131e:	4013      	ands	r3, r2
 8001320:	4211      	tst	r1, r2
 8001322:	d0f6      	beq.n	8001312 <writetospi+0x42>
 8001324:	2301      	movs	r3, #1
 8001326:	e7f4      	b.n	8001312 <writetospi+0x42>
 8001328:	7822      	ldrb	r2, [r4, #0]
 800132a:	4b0e      	ldr	r3, [pc, #56]	@ (8001364 <writetospi+0x94>)
 800132c:	731a      	strb	r2, [r3, #12]
 800132e:	3401      	adds	r4, #1
 8001330:	0035      	movs	r5, r6
 8001332:	1e6e      	subs	r6, r5, #1
 8001334:	2d00      	cmp	r5, #0
 8001336:	d1ee      	bne.n	8001316 <writetospi+0x46>
 8001338:	e001      	b.n	800133e <writetospi+0x6e>
 800133a:	2900      	cmp	r1, #0
 800133c:	d008      	beq.n	8001350 <writetospi+0x80>
 800133e:	4b09      	ldr	r3, [pc, #36]	@ (8001364 <writetospi+0x94>)
 8001340:	689b      	ldr	r3, [r3, #8]
 8001342:	2280      	movs	r2, #128	@ 0x80
 8001344:	0011      	movs	r1, r2
 8001346:	4019      	ands	r1, r3
 8001348:	421a      	tst	r2, r3
 800134a:	d0f6      	beq.n	800133a <writetospi+0x6a>
 800134c:	2101      	movs	r1, #1
 800134e:	e7f4      	b.n	800133a <writetospi+0x6a>
 8001350:	4b03      	ldr	r3, [pc, #12]	@ (8001360 <writetospi+0x90>)
 8001352:	2201      	movs	r2, #1
 8001354:	619a      	str	r2, [r3, #24]
 8001356:	4660      	mov	r0, ip
 8001358:	f000 f970 	bl	800163c <decamutexoff>
 800135c:	2000      	movs	r0, #0
 800135e:	bdf8      	pop	{r3, r4, r5, r6, r7, pc}
 8001360:	50000400 	.word	0x50000400
 8001364:	40013000 	.word	0x40013000

08001368 <readfromspi>:
 8001368:	b5f8      	push	{r3, r4, r5, r6, r7, lr}
 800136a:	0005      	movs	r5, r0
 800136c:	000f      	movs	r7, r1
 800136e:	0016      	movs	r6, r2
 8001370:	001c      	movs	r4, r3
 8001372:	e001      	b.n	8001378 <readfromspi+0x10>
 8001374:	2900      	cmp	r1, #0
 8001376:	d008      	beq.n	800138a <readfromspi+0x22>
 8001378:	4b2d      	ldr	r3, [pc, #180]	@ (8001430 <readfromspi+0xc8>)
 800137a:	689b      	ldr	r3, [r3, #8]
 800137c:	2280      	movs	r2, #128	@ 0x80
 800137e:	0011      	movs	r1, r2
 8001380:	4019      	ands	r1, r3
 8001382:	421a      	tst	r2, r3
 8001384:	d0f6      	beq.n	8001374 <readfromspi+0xc>
 8001386:	2101      	movs	r1, #1
 8001388:	e7f4      	b.n	8001374 <readfromspi+0xc>
 800138a:	f000 f955 	bl	8001638 <decamutexon>
 800138e:	4b29      	ldr	r3, [pc, #164]	@ (8001434 <readfromspi+0xcc>)
 8001390:	2201      	movs	r2, #1
 8001392:	629a      	str	r2, [r3, #40]	@ 0x28
 8001394:	e00f      	b.n	80013b6 <readfromspi+0x4e>
 8001396:	2d00      	cmp	r5, #0
 8001398:	d108      	bne.n	80013ac <readfromspi+0x44>
 800139a:	4b25      	ldr	r3, [pc, #148]	@ (8001430 <readfromspi+0xc8>)
 800139c:	689b      	ldr	r3, [r3, #8]
 800139e:	2202      	movs	r2, #2
 80013a0:	0015      	movs	r5, r2
 80013a2:	401d      	ands	r5, r3
 80013a4:	421a      	tst	r2, r3
 80013a6:	d0f6      	beq.n	8001396 <readfromspi+0x2e>
 80013a8:	2501      	movs	r5, #1
 80013aa:	e7f4      	b.n	8001396 <readfromspi+0x2e>
 80013ac:	783a      	ldrb	r2, [r7, #0]
 80013ae:	4b20      	ldr	r3, [pc, #128]	@ (8001430 <readfromspi+0xc8>)
 80013b0:	731a      	strb	r2, [r3, #12]
 80013b2:	3701      	adds	r7, #1
 80013b4:	000d      	movs	r5, r1
 80013b6:	1e69      	subs	r1, r5, #1
 80013b8:	b289      	uxth	r1, r1
 80013ba:	2d00      	cmp	r5, #0
 80013bc:	d1ed      	bne.n	800139a <readfromspi+0x32>
 80013be:	e001      	b.n	80013c4 <readfromspi+0x5c>
 80013c0:	2900      	cmp	r1, #0
 80013c2:	d008      	beq.n	80013d6 <readfromspi+0x6e>
 80013c4:	4b1a      	ldr	r3, [pc, #104]	@ (8001430 <readfromspi+0xc8>)
 80013c6:	689b      	ldr	r3, [r3, #8]
 80013c8:	2280      	movs	r2, #128	@ 0x80
 80013ca:	0011      	movs	r1, r2
 80013cc:	4019      	ands	r1, r3
 80013ce:	421a      	tst	r2, r3
 80013d0:	d0f6      	beq.n	80013c0 <readfromspi+0x58>
 80013d2:	2101      	movs	r1, #1
 80013d4:	e7f4      	b.n	80013c0 <readfromspi+0x58>
 80013d6:	4b16      	ldr	r3, [pc, #88]	@ (8001430 <readfromspi+0xc8>)
 80013d8:	7b1b      	ldrb	r3, [r3, #12]
 80013da:	e01e      	b.n	800141a <readfromspi+0xb2>
 80013dc:	2a00      	cmp	r2, #0
 80013de:	d108      	bne.n	80013f2 <readfromspi+0x8a>
 80013e0:	4b13      	ldr	r3, [pc, #76]	@ (8001430 <readfromspi+0xc8>)
 80013e2:	6899      	ldr	r1, [r3, #8]
 80013e4:	2302      	movs	r3, #2
 80013e6:	001a      	movs	r2, r3
 80013e8:	400a      	ands	r2, r1
 80013ea:	420b      	tst	r3, r1
 80013ec:	d0f6      	beq.n	80013dc <readfromspi+0x74>
 80013ee:	2201      	movs	r2, #1
 80013f0:	e7f4      	b.n	80013dc <readfromspi+0x74>
 80013f2:	4b0f      	ldr	r3, [pc, #60]	@ (8001430 <readfromspi+0xc8>)
 80013f4:	2100      	movs	r1, #0
 80013f6:	7319      	strb	r1, [r3, #12]
 80013f8:	e001      	b.n	80013fe <readfromspi+0x96>
 80013fa:	2d00      	cmp	r5, #0
 80013fc:	d108      	bne.n	8001410 <readfromspi+0xa8>
 80013fe:	4b0c      	ldr	r3, [pc, #48]	@ (8001430 <readfromspi+0xc8>)
 8001400:	6899      	ldr	r1, [r3, #8]
 8001402:	2301      	movs	r3, #1
 8001404:	001d      	movs	r5, r3
 8001406:	400d      	ands	r5, r1
 8001408:	420b      	tst	r3, r1
 800140a:	d0f6      	beq.n	80013fa <readfromspi+0x92>
 800140c:	0015      	movs	r5, r2
 800140e:	e7f4      	b.n	80013fa <readfromspi+0x92>
 8001410:	4b07      	ldr	r3, [pc, #28]	@ (8001430 <readfromspi+0xc8>)
 8001412:	7b1b      	ldrb	r3, [r3, #12]
 8001414:	7023      	strb	r3, [r4, #0]
 8001416:	3401      	adds	r4, #1
 8001418:	003e      	movs	r6, r7
 800141a:	1e77      	subs	r7, r6, #1
 800141c:	2e00      	cmp	r6, #0
 800141e:	d1df      	bne.n	80013e0 <readfromspi+0x78>
 8001420:	4b04      	ldr	r3, [pc, #16]	@ (8001434 <readfromspi+0xcc>)
 8001422:	2201      	movs	r2, #1
 8001424:	619a      	str	r2, [r3, #24]
 8001426:	f000 f909 	bl	800163c <decamutexoff>
 800142a:	2000      	movs	r0, #0
 800142c:	bdf8      	pop	{r3, r4, r5, r6, r7, pc}
 800142e:	46c0      	nop			@ (mov r8, r8)
 8001430:	40013000 	.word	0x40013000
 8001434:	50000400 	.word	0x50000400

08001438 <__io_putchar>:
 8001438:	e001      	b.n	800143e <__io_putchar+0x6>
 800143a:	2900      	cmp	r1, #0
 800143c:	d108      	bne.n	8001450 <__io_putchar+0x18>
 800143e:	4b07      	ldr	r3, [pc, #28]	@ (800145c <__io_putchar+0x24>)
 8001440:	69db      	ldr	r3, [r3, #28]
 8001442:	2280      	movs	r2, #128	@ 0x80
 8001444:	0011      	movs	r1, r2
 8001446:	4019      	ands	r1, r3
 8001448:	421a      	tst	r2, r3
 800144a:	d0f6      	beq.n	800143a <__io_putchar+0x2>
 800144c:	2101      	movs	r1, #1
 800144e:	e7f4      	b.n	800143a <__io_putchar+0x2>
 8001450:	23ff      	movs	r3, #255	@ 0xff
 8001452:	4003      	ands	r3, r0
 8001454:	4a01      	ldr	r2, [pc, #4]	@ (800145c <__io_putchar+0x24>)
 8001456:	6293      	str	r3, [r2, #40]	@ 0x28
 8001458:	4770      	bx	lr
 800145a:	46c0      	nop			@ (mov r8, r8)
 800145c:	40004400 	.word	0x40004400

08001460 <_write>:
 8001460:	b570      	push	{r4, r5, r6, lr}
 8001462:	0016      	movs	r6, r2
 8001464:	2400      	movs	r4, #0
 8001466:	e005      	b.n	8001474 <_write+0x14>
 8001468:	1c4d      	adds	r5, r1, #1
 800146a:	7808      	ldrb	r0, [r1, #0]
 800146c:	f7ff ffe4 	bl	8001438 <__io_putchar>
 8001470:	3401      	adds	r4, #1
 8001472:	0029      	movs	r1, r5
 8001474:	42b4      	cmp	r4, r6
 8001476:	dbf7      	blt.n	8001468 <_write+0x8>
 8001478:	0030      	movs	r0, r6
 800147a:	bd70      	pop	{r4, r5, r6, pc}

0800147c <deca_uart_rx_data_ready>:
 800147c:	4b01      	ldr	r3, [pc, #4]	@ (8001484 <deca_uart_rx_data_ready+0x8>)
 800147e:	7818      	ldrb	r0, [r3, #0]
 8001480:	4770      	bx	lr
 8001482:	46c0      	nop			@ (mov r8, r8)
 8001484:	20000130 	.word	0x20000130

08001488 <UART_RxCpltCallback>:
 8001488:	b570      	push	{r4, r5, r6, lr}
 800148a:	0005      	movs	r5, r0
 800148c:	f7ff ffd4 	bl	8001438 <__io_putchar>
 8001490:	e001      	b.n	8001496 <UART_RxCpltCallback+0xe>
 8001492:	2c00      	cmp	r4, #0
 8001494:	d108      	bne.n	80014a8 <UART_RxCpltCallback+0x20>
 8001496:	4b24      	ldr	r3, [pc, #144]	@ (8001528 <UART_RxCpltCallback+0xa0>)
 8001498:	69db      	ldr	r3, [r3, #28]
 800149a:	2240      	movs	r2, #64	@ 0x40
 800149c:	0014      	movs	r4, r2
 800149e:	401c      	ands	r4, r3
 80014a0:	421a      	tst	r2, r3
 80014a2:	d0f6      	beq.n	8001492 <UART_RxCpltCallback+0xa>
 80014a4:	2401      	movs	r4, #1
 80014a6:	e7f4      	b.n	8001492 <UART_RxCpltCallback+0xa>
 80014a8:	4b20      	ldr	r3, [pc, #128]	@ (800152c <UART_RxCpltCallback+0xa4>)
 80014aa:	2201      	movs	r2, #1
 80014ac:	701a      	strb	r2, [r3, #0]
 80014ae:	4b20      	ldr	r3, [pc, #128]	@ (8001530 <UART_RxCpltCallback+0xa8>)
 80014b0:	781b      	ldrb	r3, [r3, #0]
 80014b2:	2b00      	cmp	r3, #0
 80014b4:	d113      	bne.n	80014de <UART_RxCpltCallback+0x56>
 80014b6:	2d08      	cmp	r5, #8
 80014b8:	d00d      	beq.n	80014d6 <UART_RxCpltCallback+0x4e>
 80014ba:	2d0d      	cmp	r5, #13
 80014bc:	d02a      	beq.n	8001514 <UART_RxCpltCallback+0x8c>
 80014be:	491d      	ldr	r1, [pc, #116]	@ (8001534 <UART_RxCpltCallback+0xac>)
 80014c0:	680a      	ldr	r2, [r1, #0]
 80014c2:	1c53      	adds	r3, r2, #1
 80014c4:	600b      	str	r3, [r1, #0]
 80014c6:	491c      	ldr	r1, [pc, #112]	@ (8001538 <UART_RxCpltCallback+0xb0>)
 80014c8:	548d      	strb	r5, [r1, r2]
 80014ca:	2bff      	cmp	r3, #255	@ 0xff
 80014cc:	d907      	bls.n	80014de <UART_RxCpltCallback+0x56>
 80014ce:	4b18      	ldr	r3, [pc, #96]	@ (8001530 <UART_RxCpltCallback+0xa8>)
 80014d0:	2201      	movs	r2, #1
 80014d2:	701a      	strb	r2, [r3, #0]
 80014d4:	e003      	b.n	80014de <UART_RxCpltCallback+0x56>
 80014d6:	4b17      	ldr	r3, [pc, #92]	@ (8001534 <UART_RxCpltCallback+0xac>)
 80014d8:	681b      	ldr	r3, [r3, #0]
 80014da:	2b00      	cmp	r3, #0
 80014dc:	d100      	bne.n	80014e0 <UART_RxCpltCallback+0x58>
 80014de:	bd70      	pop	{r4, r5, r6, pc}
 80014e0:	2020      	movs	r0, #32
 80014e2:	f7ff ffa9 	bl	8001438 <__io_putchar>
 80014e6:	2008      	movs	r0, #8
 80014e8:	f7ff ffa6 	bl	8001438 <__io_putchar>
 80014ec:	e001      	b.n	80014f2 <UART_RxCpltCallback+0x6a>
 80014ee:	2900      	cmp	r1, #0
 80014f0:	d108      	bne.n	8001504 <UART_RxCpltCallback+0x7c>
 80014f2:	4b0d      	ldr	r3, [pc, #52]	@ (8001528 <UART_RxCpltCallback+0xa0>)
 80014f4:	69db      	ldr	r3, [r3, #28]
 80014f6:	2240      	movs	r2, #64	@ 0x40
 80014f8:	0011      	movs	r1, r2
 80014fa:	4019      	ands	r1, r3
 80014fc:	421a      	tst	r2, r3
 80014fe:	d0f6      	beq.n	80014ee <UART_RxCpltCallback+0x66>
 8001500:	0021      	movs	r1, r4
 8001502:	e7f4      	b.n	80014ee <UART_RxCpltCallback+0x66>
 8001504:	4a0b      	ldr	r2, [pc, #44]	@ (8001534 <UART_RxCpltCallback+0xac>)
 8001506:	6813      	ldr	r3, [r2, #0]
 8001508:	3b01      	subs	r3, #1
 800150a:	6013      	str	r3, [r2, #0]
 800150c:	4a0a      	ldr	r2, [pc, #40]	@ (8001538 <UART_RxCpltCallback+0xb0>)
 800150e:	2100      	movs	r1, #0
 8001510:	54d1      	strb	r1, [r2, r3]
 8001512:	e7e4      	b.n	80014de <UART_RxCpltCallback+0x56>
 8001514:	4b06      	ldr	r3, [pc, #24]	@ (8001530 <UART_RxCpltCallback+0xa8>)
 8001516:	2201      	movs	r2, #1
 8001518:	701a      	strb	r2, [r3, #0]
 800151a:	4b06      	ldr	r3, [pc, #24]	@ (8001534 <UART_RxCpltCallback+0xac>)
 800151c:	681a      	ldr	r2, [r3, #0]
 800151e:	4b06      	ldr	r3, [pc, #24]	@ (8001538 <UART_RxCpltCallback+0xb0>)
 8001520:	2100      	movs	r1, #0
 8001522:	5499      	strb	r1, [r3, r2]
 8001524:	e7db      	b.n	80014de <UART_RxCpltCallback+0x56>
 8001526:	46c0      	nop			@ (mov r8, r8)
 8001528:	40004400 	.word	0x40004400
 800152c:	2000023c 	.word	0x2000023c
 8001530:	20000130 	.word	0x20000130
 8001534:	20000134 	.word	0x20000134
 8001538:	20000138 	.word	0x20000138

0800153c <port_tx_msg>:
 800153c:	b510      	push	{r4, lr}
 800153e:	000a      	movs	r2, r1
 8001540:	0001      	movs	r1, r0
 8001542:	2000      	movs	r0, #0
 8001544:	f7ff ff8c 	bl	8001460 <_write>
 8001548:	bd10      	pop	{r4, pc}
	...

0800154c <deca_uart_receive>:
 800154c:	b5f8      	push	{r3, r4, r5, r6, r7, lr}
 800154e:	0005      	movs	r5, r0
 8001550:	000c      	movs	r4, r1
 8001552:	b672      	cpsid	i
 8001554:	4b0b      	ldr	r3, [pc, #44]	@ (8001584 <deca_uart_receive+0x38>)
 8001556:	681e      	ldr	r6, [r3, #0]
 8001558:	0032      	movs	r2, r6
 800155a:	428e      	cmp	r6, r1
 800155c:	d900      	bls.n	8001560 <deca_uart_receive+0x14>
 800155e:	000a      	movs	r2, r1
 8001560:	4909      	ldr	r1, [pc, #36]	@ (8001588 <deca_uart_receive+0x3c>)
 8001562:	0028      	movs	r0, r5
 8001564:	f002 fc5a 	bl	8003e1c <memcpy>
 8001568:	4b06      	ldr	r3, [pc, #24]	@ (8001584 <deca_uart_receive+0x38>)
 800156a:	2700      	movs	r7, #0
 800156c:	601f      	str	r7, [r3, #0]
 800156e:	3c01      	subs	r4, #1
 8001570:	192d      	adds	r5, r5, r4
 8001572:	702f      	strb	r7, [r5, #0]
 8001574:	200a      	movs	r0, #10
 8001576:	f7ff ff5f 	bl	8001438 <__io_putchar>
 800157a:	4b04      	ldr	r3, [pc, #16]	@ (800158c <deca_uart_receive+0x40>)
 800157c:	701f      	strb	r7, [r3, #0]
 800157e:	b662      	cpsie	i
 8001580:	0030      	movs	r0, r6
 8001582:	bdf8      	pop	{r3, r4, r5, r6, r7, pc}
 8001584:	20000134 	.word	0x20000134
 8001588:	20000138 	.word	0x20000138
 800158c:	20000130 	.word	0x20000130

08001590 <IncSysTick>:
 8001590:	4a02      	ldr	r2, [pc, #8]	@ (800159c <IncSysTick+0xc>)
 8001592:	6813      	ldr	r3, [r2, #0]
 8001594:	3301      	adds	r3, #1
 8001596:	6013      	str	r3, [r2, #0]
 8001598:	4770      	bx	lr
 800159a:	46c0      	nop			@ (mov r8, r8)
 800159c:	20000238 	.word	0x20000238

080015a0 <portGetTickCount>:
 80015a0:	4b01      	ldr	r3, [pc, #4]	@ (80015a8 <portGetTickCount+0x8>)
 80015a2:	6818      	ldr	r0, [r3, #0]
 80015a4:	4770      	bx	lr
 80015a6:	46c0      	nop			@ (mov r8, r8)
 80015a8:	20000238 	.word	0x20000238

080015ac <port_set_dw1000_slowrate>:
 80015ac:	e001      	b.n	80015b2 <port_set_dw1000_slowrate+0x6>
 80015ae:	2900      	cmp	r1, #0
 80015b0:	d008      	beq.n	80015c4 <port_set_dw1000_slowrate+0x18>
 80015b2:	4b0f      	ldr	r3, [pc, #60]	@ (80015f0 <port_set_dw1000_slowrate+0x44>)
 80015b4:	689b      	ldr	r3, [r3, #8]
 80015b6:	2280      	movs	r2, #128	@ 0x80
 80015b8:	0011      	movs	r1, r2
 80015ba:	4019      	ands	r1, r3
 80015bc:	421a      	tst	r2, r3
 80015be:	d0f6      	beq.n	80015ae <port_set_dw1000_slowrate+0x2>
 80015c0:	2101      	movs	r1, #1
 80015c2:	e7f4      	b.n	80015ae <port_set_dw1000_slowrate+0x2>
 80015c4:	4b0a      	ldr	r3, [pc, #40]	@ (80015f0 <port_set_dw1000_slowrate+0x44>)
 80015c6:	689b      	ldr	r3, [r3, #8]
 80015c8:	07db      	lsls	r3, r3, #31
 80015ca:	d501      	bpl.n	80015d0 <port_set_dw1000_slowrate+0x24>
 80015cc:	4b08      	ldr	r3, [pc, #32]	@ (80015f0 <port_set_dw1000_slowrate+0x44>)
 80015ce:	7b1b      	ldrb	r3, [r3, #12]
 80015d0:	4b07      	ldr	r3, [pc, #28]	@ (80015f0 <port_set_dw1000_slowrate+0x44>)
 80015d2:	681a      	ldr	r2, [r3, #0]
 80015d4:	2140      	movs	r1, #64	@ 0x40
 80015d6:	438a      	bics	r2, r1
 80015d8:	601a      	str	r2, [r3, #0]
 80015da:	681a      	ldr	r2, [r3, #0]
 80015dc:	2038      	movs	r0, #56	@ 0x38
 80015de:	4382      	bics	r2, r0
 80015e0:	3820      	subs	r0, #32
 80015e2:	4302      	orrs	r2, r0
 80015e4:	601a      	str	r2, [r3, #0]
 80015e6:	681a      	ldr	r2, [r3, #0]
 80015e8:	430a      	orrs	r2, r1
 80015ea:	601a      	str	r2, [r3, #0]
 80015ec:	4770      	bx	lr
 80015ee:	46c0      	nop			@ (mov r8, r8)
 80015f0:	40013000 	.word	0x40013000

080015f4 <port_set_dw1000_fastrate>:
 80015f4:	e001      	b.n	80015fa <port_set_dw1000_fastrate+0x6>
 80015f6:	2900      	cmp	r1, #0
 80015f8:	d008      	beq.n	800160c <port_set_dw1000_fastrate+0x18>
 80015fa:	4b0e      	ldr	r3, [pc, #56]	@ (8001634 <port_set_dw1000_fastrate+0x40>)
 80015fc:	689b      	ldr	r3, [r3, #8]
 80015fe:	2280      	movs	r2, #128	@ 0x80
 8001600:	0011      	movs	r1, r2
 8001602:	4019      	ands	r1, r3
 8001604:	421a      	tst	r2, r3
 8001606:	d0f6      	beq.n	80015f6 <port_set_dw1000_fastrate+0x2>
 8001608:	2101      	movs	r1, #1
 800160a:	e7f4      	b.n	80015f6 <port_set_dw1000_fastrate+0x2>
 800160c:	4b09      	ldr	r3, [pc, #36]	@ (8001634 <port_set_dw1000_fastrate+0x40>)
 800160e:	689b      	ldr	r3, [r3, #8]
 8001610:	07db      	lsls	r3, r3, #31
 8001612:	d501      	bpl.n	8001618 <port_set_dw1000_fastrate+0x24>
 8001614:	4b07      	ldr	r3, [pc, #28]	@ (8001634 <port_set_dw1000_fastrate+0x40>)
 8001616:	7b1b      	ldrb	r3, [r3, #12]
 8001618:	4b06      	ldr	r3, [pc, #24]	@ (8001634 <port_set_dw1000_fastrate+0x40>)
 800161a:	681a      	ldr	r2, [r3, #0]
 800161c:	2140      	movs	r1, #64	@ 0x40
 800161e:	438a      	bics	r2, r1
 8001620:	601a      	str	r2, [r3, #0]
 8001622:	681a      	ldr	r2, [r3, #0]
 8001624:	2038      	movs	r0, #56	@ 0x38
 8001626:	4382      	bics	r2, r0
 8001628:	601a      	str	r2, [r3, #0]
 800162a:	681a      	ldr	r2, [r3, #0]
 800162c:	430a      	orrs	r2, r1
 800162e:	601a      	str	r2, [r3, #0]
 8001630:	4770      	bx	lr
 8001632:	46c0      	nop			@ (mov r8, r8)
 8001634:	40013000 	.word	0x40013000

08001638 <decamutexon>:
 8001638:	2000      	movs	r0, #0
 800163a:	4770      	bx	lr

0800163c <decamutexoff>:
 800163c:	4770      	bx	lr
	...

08001640 <reset_DW1000>:
 8001640:	b570      	push	{r4, r5, r6, lr}
 8001642:	b086      	sub	sp, #24
 8001644:	2502      	movs	r5, #2
 8001646:	9500      	str	r5, [sp, #0]
 8001648:	2301      	movs	r3, #1
 800164a:	9301      	str	r3, [sp, #4]
 800164c:	2400      	movs	r4, #0
 800164e:	9402      	str	r4, [sp, #8]
 8001650:	9403      	str	r4, [sp, #12]
 8001652:	9504      	str	r5, [sp, #16]
 8001654:	4e0a      	ldr	r6, [pc, #40]	@ (8001680 <reset_DW1000+0x40>)
 8001656:	4669      	mov	r1, sp
 8001658:	0030      	movs	r0, r6
 800165a:	f7ff fbbf 	bl	8000ddc <LL_GPIO_Init>
 800165e:	62b5      	str	r5, [r6, #40]	@ 0x28
 8001660:	2001      	movs	r0, #1
 8001662:	f7ff fe0f 	bl	8001284 <LL_mDelay>
 8001666:	9500      	str	r5, [sp, #0]
 8001668:	9401      	str	r4, [sp, #4]
 800166a:	9404      	str	r4, [sp, #16]
 800166c:	4669      	mov	r1, sp
 800166e:	0030      	movs	r0, r6
 8001670:	f7ff fbb4 	bl	8000ddc <LL_GPIO_Init>
 8001674:	2005      	movs	r0, #5
 8001676:	f7ff fe05 	bl	8001284 <LL_mDelay>
 800167a:	b006      	add	sp, #24
 800167c:	bd70      	pop	{r4, r5, r6, pc}
 800167e:	46c0      	nop			@ (mov r8, r8)
 8001680:	50000400 	.word	0x50000400

08001684 <port_wakeup_dw1000>:
 8001684:	b570      	push	{r4, r5, r6, lr}
 8001686:	4c05      	ldr	r4, [pc, #20]	@ (800169c <port_wakeup_dw1000+0x18>)
 8001688:	2501      	movs	r5, #1
 800168a:	62a5      	str	r5, [r4, #40]	@ 0x28
 800168c:	2001      	movs	r0, #1
 800168e:	f7ff fdf9 	bl	8001284 <LL_mDelay>
 8001692:	61a5      	str	r5, [r4, #24]
 8001694:	2007      	movs	r0, #7
 8001696:	f7ff fdf5 	bl	8001284 <LL_mDelay>
 800169a:	bd70      	pop	{r4, r5, r6, pc}
 800169c:	50000400 	.word	0x50000400

080016a0 <LEDS_INVERT>:
 80016a0:	b510      	push	{r4, lr}
 80016a2:	07c3      	lsls	r3, r0, #31
 80016a4:	d509      	bpl.n	80016ba <LEDS_INVERT+0x1a>
 80016a6:	4913      	ldr	r1, [pc, #76]	@ (80016f4 <LEDS_INVERT+0x54>)
 80016a8:	694c      	ldr	r4, [r1, #20]
 80016aa:	0423      	lsls	r3, r4, #16
 80016ac:	2280      	movs	r2, #128	@ 0x80
 80016ae:	0312      	lsls	r2, r2, #12
 80016b0:	4013      	ands	r3, r2
 80016b2:	2208      	movs	r2, #8
 80016b4:	43a2      	bics	r2, r4
 80016b6:	4313      	orrs	r3, r2
 80016b8:	618b      	str	r3, [r1, #24]
 80016ba:	0783      	lsls	r3, r0, #30
 80016bc:	d50a      	bpl.n	80016d4 <LEDS_INVERT+0x34>
 80016be:	21a0      	movs	r1, #160	@ 0xa0
 80016c0:	05c9      	lsls	r1, r1, #23
 80016c2:	694c      	ldr	r4, [r1, #20]
 80016c4:	0423      	lsls	r3, r4, #16
 80016c6:	2280      	movs	r2, #128	@ 0x80
 80016c8:	0292      	lsls	r2, r2, #10
 80016ca:	4013      	ands	r3, r2
 80016cc:	2202      	movs	r2, #2
 80016ce:	43a2      	bics	r2, r4
 80016d0:	4313      	orrs	r3, r2
 80016d2:	618b      	str	r3, [r1, #24]
 80016d4:	0740      	lsls	r0, r0, #29
 80016d6:	d50b      	bpl.n	80016f0 <LEDS_INVERT+0x50>
 80016d8:	21a0      	movs	r1, #160	@ 0xa0
 80016da:	05c9      	lsls	r1, r1, #23
 80016dc:	6948      	ldr	r0, [r1, #20]
 80016de:	0403      	lsls	r3, r0, #16
 80016e0:	2280      	movs	r2, #128	@ 0x80
 80016e2:	0452      	lsls	r2, r2, #17
 80016e4:	4013      	ands	r3, r2
 80016e6:	2280      	movs	r2, #128	@ 0x80
 80016e8:	0052      	lsls	r2, r2, #1
 80016ea:	4382      	bics	r2, r0
 80016ec:	4313      	orrs	r3, r2
 80016ee:	618b      	str	r3, [r1, #24]
 80016f0:	bd10      	pop	{r4, pc}
 80016f2:	46c0      	nop			@ (mov r8, r8)
 80016f4:	50000400 	.word	0x50000400

080016f8 <LEDS_OFF>:
 80016f8:	07c3      	lsls	r3, r0, #31
 80016fa:	d502      	bpl.n	8001702 <LEDS_OFF+0xa>
 80016fc:	4b08      	ldr	r3, [pc, #32]	@ (8001720 <LEDS_OFF+0x28>)
 80016fe:	2208      	movs	r2, #8
 8001700:	619a      	str	r2, [r3, #24]
 8001702:	0783      	lsls	r3, r0, #30
 8001704:	d503      	bpl.n	800170e <LEDS_OFF+0x16>
 8001706:	23a0      	movs	r3, #160	@ 0xa0
 8001708:	05db      	lsls	r3, r3, #23
 800170a:	2202      	movs	r2, #2
 800170c:	619a      	str	r2, [r3, #24]
 800170e:	0740      	lsls	r0, r0, #29
 8001710:	d504      	bpl.n	800171c <LEDS_OFF+0x24>
 8001712:	23a0      	movs	r3, #160	@ 0xa0
 8001714:	05db      	lsls	r3, r3, #23
 8001716:	2280      	movs	r2, #128	@ 0x80
 8001718:	0052      	lsls	r2, r2, #1
 800171a:	619a      	str	r2, [r3, #24]
 800171c:	4770      	bx	lr
 800171e:	46c0      	nop			@ (mov r8, r8)
 8001720:	50000400 	.word	0x50000400

08001724 <spi_device_init>:
 8001724:	2000      	movs	r0, #0
 8001726:	4770      	bx	lr

08001728 <spi_transfer_pf>:
 8001728:	2000      	movs	r0, #0
 800172a:	4770      	bx	lr

0800172c <i2c_slave_read>:
 800172c:	b5f0      	push	{r4, r5, r6, r7, lr}
 800172e:	a805      	add	r0, sp, #20
 8001730:	8805      	ldrh	r5, [r0, #0]
 8001732:	481d      	ldr	r0, [pc, #116]	@ (80017a8 <i2c_slave_read+0x7c>)
 8001734:	4308      	orrs	r0, r1
 8001736:	4c1d      	ldr	r4, [pc, #116]	@ (80017ac <i2c_slave_read+0x80>)
 8001738:	6866      	ldr	r6, [r4, #4]
 800173a:	4f1d      	ldr	r7, [pc, #116]	@ (80017b0 <i2c_slave_read+0x84>)
 800173c:	403e      	ands	r6, r7
 800173e:	4330      	orrs	r0, r6
 8001740:	6060      	str	r0, [r4, #4]
 8001742:	62a2      	str	r2, [r4, #40]	@ 0x28
 8001744:	e001      	b.n	800174a <i2c_slave_read+0x1e>
 8001746:	2c00      	cmp	r4, #0
 8001748:	d108      	bne.n	800175c <i2c_slave_read+0x30>
 800174a:	4a18      	ldr	r2, [pc, #96]	@ (80017ac <i2c_slave_read+0x80>)
 800174c:	6992      	ldr	r2, [r2, #24]
 800174e:	2020      	movs	r0, #32
 8001750:	0004      	movs	r4, r0
 8001752:	4014      	ands	r4, r2
 8001754:	4210      	tst	r0, r2
 8001756:	d0f6      	beq.n	8001746 <i2c_slave_read+0x1a>
 8001758:	2401      	movs	r4, #1
 800175a:	e7f4      	b.n	8001746 <i2c_slave_read+0x1a>
 800175c:	4813      	ldr	r0, [pc, #76]	@ (80017ac <i2c_slave_read+0x80>)
 800175e:	69c2      	ldr	r2, [r0, #28]
 8001760:	2420      	movs	r4, #32
 8001762:	4322      	orrs	r2, r4
 8001764:	61c2      	str	r2, [r0, #28]
 8001766:	042a      	lsls	r2, r5, #16
 8001768:	24ff      	movs	r4, #255	@ 0xff
 800176a:	0424      	lsls	r4, r4, #16
 800176c:	4022      	ands	r2, r4
 800176e:	430a      	orrs	r2, r1
 8001770:	4910      	ldr	r1, [pc, #64]	@ (80017b4 <i2c_slave_read+0x88>)
 8001772:	4311      	orrs	r1, r2
 8001774:	6842      	ldr	r2, [r0, #4]
 8001776:	4c0e      	ldr	r4, [pc, #56]	@ (80017b0 <i2c_slave_read+0x84>)
 8001778:	4022      	ands	r2, r4
 800177a:	4311      	orrs	r1, r2
 800177c:	6041      	str	r1, [r0, #4]
 800177e:	4a0b      	ldr	r2, [pc, #44]	@ (80017ac <i2c_slave_read+0x80>)
 8001780:	6992      	ldr	r2, [r2, #24]
 8001782:	0692      	lsls	r2, r2, #26
 8001784:	d408      	bmi.n	8001798 <i2c_slave_read+0x6c>
 8001786:	4a09      	ldr	r2, [pc, #36]	@ (80017ac <i2c_slave_read+0x80>)
 8001788:	6992      	ldr	r2, [r2, #24]
 800178a:	0752      	lsls	r2, r2, #29
 800178c:	d5f7      	bpl.n	800177e <i2c_slave_read+0x52>
 800178e:	4a07      	ldr	r2, [pc, #28]	@ (80017ac <i2c_slave_read+0x80>)
 8001790:	6a52      	ldr	r2, [r2, #36]	@ 0x24
 8001792:	701a      	strb	r2, [r3, #0]
 8001794:	3301      	adds	r3, #1
 8001796:	e7f2      	b.n	800177e <i2c_slave_read+0x52>
 8001798:	4a04      	ldr	r2, [pc, #16]	@ (80017ac <i2c_slave_read+0x80>)
 800179a:	69d3      	ldr	r3, [r2, #28]
 800179c:	2120      	movs	r1, #32
 800179e:	430b      	orrs	r3, r1
 80017a0:	61d3      	str	r3, [r2, #28]
 80017a2:	2000      	movs	r0, #0
 80017a4:	bdf0      	pop	{r4, r5, r6, r7, pc}
 80017a6:	46c0      	nop			@ (mov r8, r8)
 80017a8:	02012000 	.word	0x02012000
 80017ac:	40005400 	.word	0x40005400
 80017b0:	fc008000 	.word	0xfc008000
 80017b4:	02002400 	.word	0x02002400

080017b8 <lis3dh_configure_int>:
 80017b8:	b530      	push	{r4, r5, lr}
 80017ba:	b089      	sub	sp, #36	@ 0x24
 80017bc:	f002 f896 	bl	80038ec <lis3dh_get_device>
 80017c0:	1e04      	subs	r4, r0, #0
 80017c2:	d031      	beq.n	8001828 <lis3dh_configure_int+0x70>
 80017c4:	a905      	add	r1, sp, #20
 80017c6:	2300      	movs	r3, #0
 80017c8:	700b      	strb	r3, [r1, #0]
 80017ca:	220a      	movs	r2, #10
 80017cc:	704a      	strb	r2, [r1, #1]
 80017ce:	708b      	strb	r3, [r1, #2]
 80017d0:	2501      	movs	r5, #1
 80017d2:	70cd      	strb	r5, [r1, #3]
 80017d4:	710b      	strb	r3, [r1, #4]
 80017d6:	714d      	strb	r5, [r1, #5]
 80017d8:	718b      	strb	r3, [r1, #6]
 80017da:	71cd      	strb	r5, [r1, #7]
 80017dc:	724b      	strb	r3, [r1, #9]
 80017de:	720b      	strb	r3, [r1, #8]
 80017e0:	2200      	movs	r2, #0
 80017e2:	0020      	movs	r0, r4
 80017e4:	f001 fee8 	bl	80035b8 <lis3dh_set_int_event_config>
 80017e8:	2301      	movs	r3, #1
 80017ea:	2200      	movs	r2, #0
 80017ec:	2103      	movs	r1, #3
 80017ee:	0020      	movs	r0, r4
 80017f0:	f001 fe34 	bl	800345c <lis3dh_enable_int>
 80017f4:	9502      	str	r5, [sp, #8]
 80017f6:	9501      	str	r5, [sp, #4]
 80017f8:	9500      	str	r5, [sp, #0]
 80017fa:	2301      	movs	r3, #1
 80017fc:	2200      	movs	r2, #0
 80017fe:	2100      	movs	r1, #0
 8001800:	0020      	movs	r0, r4
 8001802:	f002 f801 	bl	8003808 <lis3dh_config_hpf>
 8001806:	0020      	movs	r0, r4
 8001808:	f001 fca9 	bl	800315e <lis3dh_get_hpf_ref>
 800180c:	2100      	movs	r1, #0
 800180e:	0020      	movs	r0, r4
 8001810:	f001 fdfb 	bl	800340a <lis3dh_set_scale>
 8001814:	9501      	str	r5, [sp, #4]
 8001816:	9500      	str	r5, [sp, #0]
 8001818:	2301      	movs	r3, #1
 800181a:	2202      	movs	r2, #2
 800181c:	2102      	movs	r1, #2
 800181e:	0020      	movs	r0, r4
 8001820:	f001 fd7e 	bl	8003320 <lis3dh_set_mode>
 8001824:	b009      	add	sp, #36	@ 0x24
 8001826:	bd30      	pop	{r4, r5, pc}
 8001828:	2200      	movs	r2, #0
 800182a:	2132      	movs	r1, #50	@ 0x32
 800182c:	2000      	movs	r0, #0
 800182e:	f001 fd03 	bl	8003238 <lis3dh_init_sensor>
 8001832:	0004      	movs	r4, r0
 8001834:	e7c6      	b.n	80017c4 <lis3dh_configure_int+0xc>
	...

08001838 <GPIO_EXTI3_Callback>:
 8001838:	4b01      	ldr	r3, [pc, #4]	@ (8001840 <GPIO_EXTI3_Callback+0x8>)
 800183a:	2201      	movs	r2, #1
 800183c:	701a      	strb	r2, [r3, #0]
 800183e:	4770      	bx	lr
 8001840:	2000023d 	.word	0x2000023d

08001844 <GPIO_EXTI0_Callback>:
 8001844:	b510      	push	{r4, lr}
 8001846:	2004      	movs	r0, #4
 8001848:	f7ff ff2a 	bl	80016a0 <LEDS_INVERT>
 800184c:	bd10      	pop	{r4, pc}
	...

08001850 <i2c_slave_write>:
 8001850:	b530      	push	{r4, r5, lr}
 8001852:	a803      	add	r0, sp, #12
 8001854:	8800      	ldrh	r0, [r0, #0]
 8001856:	3001      	adds	r0, #1
 8001858:	0400      	lsls	r0, r0, #16
 800185a:	24ff      	movs	r4, #255	@ 0xff
 800185c:	0424      	lsls	r4, r4, #16
 800185e:	4020      	ands	r0, r4
 8001860:	4308      	orrs	r0, r1
 8001862:	490e      	ldr	r1, [pc, #56]	@ (800189c <i2c_slave_write+0x4c>)
 8001864:	4301      	orrs	r1, r0
 8001866:	480e      	ldr	r0, [pc, #56]	@ (80018a0 <i2c_slave_write+0x50>)
 8001868:	6844      	ldr	r4, [r0, #4]
 800186a:	4d0e      	ldr	r5, [pc, #56]	@ (80018a4 <i2c_slave_write+0x54>)
 800186c:	402c      	ands	r4, r5
 800186e:	4321      	orrs	r1, r4
 8001870:	6041      	str	r1, [r0, #4]
 8001872:	6282      	str	r2, [r0, #40]	@ 0x28
 8001874:	4a0a      	ldr	r2, [pc, #40]	@ (80018a0 <i2c_slave_write+0x50>)
 8001876:	6992      	ldr	r2, [r2, #24]
 8001878:	0692      	lsls	r2, r2, #26
 800187a:	d408      	bmi.n	800188e <i2c_slave_write+0x3e>
 800187c:	4a08      	ldr	r2, [pc, #32]	@ (80018a0 <i2c_slave_write+0x50>)
 800187e:	6992      	ldr	r2, [r2, #24]
 8001880:	0792      	lsls	r2, r2, #30
 8001882:	d5f7      	bpl.n	8001874 <i2c_slave_write+0x24>
 8001884:	7819      	ldrb	r1, [r3, #0]
 8001886:	4a06      	ldr	r2, [pc, #24]	@ (80018a0 <i2c_slave_write+0x50>)
 8001888:	6291      	str	r1, [r2, #40]	@ 0x28
 800188a:	3301      	adds	r3, #1
 800188c:	e7f2      	b.n	8001874 <i2c_slave_write+0x24>
 800188e:	4a04      	ldr	r2, [pc, #16]	@ (80018a0 <i2c_slave_write+0x50>)
 8001890:	69d3      	ldr	r3, [r2, #28]
 8001892:	2120      	movs	r1, #32
 8001894:	430b      	orrs	r3, r1
 8001896:	61d3      	str	r3, [r2, #28]
 8001898:	2000      	movs	r0, #0
 800189a:	bd30      	pop	{r4, r5, pc}
 800189c:	02002000 	.word	0x02002000
 80018a0:	40005400 	.word	0x40005400
 80018a4:	fc008000 	.word	0xfc008000

080018a8 <UART2_IRQHandler>:
 80018a8:	b570      	push	{r4, r5, r6, lr}
 80018aa:	4a3f      	ldr	r2, [pc, #252]	@ (80019a8 <UART2_IRQHandler+0x100>)
 80018ac:	69d3      	ldr	r3, [r2, #28]
 80018ae:	6811      	ldr	r1, [r2, #0]
 80018b0:	6892      	ldr	r2, [r2, #8]
 80018b2:	0718      	lsls	r0, r3, #28
 80018b4:	d109      	bne.n	80018ca <UART2_IRQHandler+0x22>
 80018b6:	0698      	lsls	r0, r3, #26
 80018b8:	d510      	bpl.n	80018dc <UART2_IRQHandler+0x34>
 80018ba:	0688      	lsls	r0, r1, #26
 80018bc:	d50e      	bpl.n	80018dc <UART2_IRQHandler+0x34>
 80018be:	4b3a      	ldr	r3, [pc, #232]	@ (80019a8 <UART2_IRQHandler+0x100>)
 80018c0:	6a58      	ldr	r0, [r3, #36]	@ 0x24
 80018c2:	b2c0      	uxtb	r0, r0
 80018c4:	f7ff fde0 	bl	8001488 <UART_RxCpltCallback>
 80018c8:	e014      	b.n	80018f4 <UART2_IRQHandler+0x4c>
 80018ca:	2001      	movs	r0, #1
 80018cc:	0005      	movs	r5, r0
 80018ce:	4015      	ands	r5, r2
 80018d0:	4210      	tst	r0, r2
 80018d2:	d110      	bne.n	80018f6 <UART2_IRQHandler+0x4e>
 80018d4:	3020      	adds	r0, #32
 80018d6:	30ff      	adds	r0, #255	@ 0xff
 80018d8:	4201      	tst	r1, r0
 80018da:	d10c      	bne.n	80018f6 <UART2_IRQHandler+0x4e>
 80018dc:	02d8      	lsls	r0, r3, #11
 80018de:	d501      	bpl.n	80018e4 <UART2_IRQHandler+0x3c>
 80018e0:	0252      	lsls	r2, r2, #9
 80018e2:	d44f      	bmi.n	8001984 <UART2_IRQHandler+0xdc>
 80018e4:	061a      	lsls	r2, r3, #24
 80018e6:	d501      	bpl.n	80018ec <UART2_IRQHandler+0x44>
 80018e8:	060a      	lsls	r2, r1, #24
 80018ea:	d403      	bmi.n	80018f4 <UART2_IRQHandler+0x4c>
 80018ec:	065b      	lsls	r3, r3, #25
 80018ee:	d501      	bpl.n	80018f4 <UART2_IRQHandler+0x4c>
 80018f0:	0649      	lsls	r1, r1, #25
 80018f2:	d44c      	bmi.n	800198e <UART2_IRQHandler+0xe6>
 80018f4:	bd70      	pop	{r4, r5, r6, pc}
 80018f6:	2201      	movs	r2, #1
 80018f8:	0014      	movs	r4, r2
 80018fa:	401c      	ands	r4, r3
 80018fc:	421a      	tst	r2, r3
 80018fe:	d008      	beq.n	8001912 <UART2_IRQHandler+0x6a>
 8001900:	32ff      	adds	r2, #255	@ 0xff
 8001902:	000c      	movs	r4, r1
 8001904:	4014      	ands	r4, r2
 8001906:	4211      	tst	r1, r2
 8001908:	d003      	beq.n	8001912 <UART2_IRQHandler+0x6a>
 800190a:	4a27      	ldr	r2, [pc, #156]	@ (80019a8 <UART2_IRQHandler+0x100>)
 800190c:	2001      	movs	r0, #1
 800190e:	6210      	str	r0, [r2, #32]
 8001910:	2401      	movs	r4, #1
 8001912:	079a      	lsls	r2, r3, #30
 8001914:	d506      	bpl.n	8001924 <UART2_IRQHandler+0x7c>
 8001916:	2d00      	cmp	r5, #0
 8001918:	d004      	beq.n	8001924 <UART2_IRQHandler+0x7c>
 800191a:	4a23      	ldr	r2, [pc, #140]	@ (80019a8 <UART2_IRQHandler+0x100>)
 800191c:	2002      	movs	r0, #2
 800191e:	6210      	str	r0, [r2, #32]
 8001920:	2204      	movs	r2, #4
 8001922:	4314      	orrs	r4, r2
 8001924:	075a      	lsls	r2, r3, #29
 8001926:	d506      	bpl.n	8001936 <UART2_IRQHandler+0x8e>
 8001928:	2d00      	cmp	r5, #0
 800192a:	d004      	beq.n	8001936 <UART2_IRQHandler+0x8e>
 800192c:	4a1e      	ldr	r2, [pc, #120]	@ (80019a8 <UART2_IRQHandler+0x100>)
 800192e:	2004      	movs	r0, #4
 8001930:	6210      	str	r0, [r2, #32]
 8001932:	2202      	movs	r2, #2
 8001934:	4314      	orrs	r4, r2
 8001936:	071a      	lsls	r2, r3, #28
 8001938:	d51b      	bpl.n	8001972 <UART2_IRQHandler+0xca>
 800193a:	068a      	lsls	r2, r1, #26
 800193c:	d401      	bmi.n	8001942 <UART2_IRQHandler+0x9a>
 800193e:	2d00      	cmp	r5, #0
 8001940:	d017      	beq.n	8001972 <UART2_IRQHandler+0xca>
 8001942:	2208      	movs	r2, #8
 8001944:	4818      	ldr	r0, [pc, #96]	@ (80019a8 <UART2_IRQHandler+0x100>)
 8001946:	6202      	str	r2, [r0, #32]
 8001948:	4314      	orrs	r4, r2
 800194a:	069b      	lsls	r3, r3, #26
 800194c:	d501      	bpl.n	8001952 <UART2_IRQHandler+0xaa>
 800194e:	0689      	lsls	r1, r1, #26
 8001950:	d412      	bmi.n	8001978 <UART2_IRQHandler+0xd0>
 8001952:	4b15      	ldr	r3, [pc, #84]	@ (80019a8 <UART2_IRQHandler+0x100>)
 8001954:	689b      	ldr	r3, [r3, #8]
 8001956:	065b      	lsls	r3, r3, #25
 8001958:	d401      	bmi.n	800195e <UART2_IRQHandler+0xb6>
 800195a:	0724      	lsls	r4, r4, #28
 800195c:	d5ca      	bpl.n	80018f4 <UART2_IRQHandler+0x4c>
 800195e:	4b12      	ldr	r3, [pc, #72]	@ (80019a8 <UART2_IRQHandler+0x100>)
 8001960:	689b      	ldr	r3, [r3, #8]
 8001962:	065b      	lsls	r3, r3, #25
 8001964:	d5c6      	bpl.n	80018f4 <UART2_IRQHandler+0x4c>
 8001966:	4a10      	ldr	r2, [pc, #64]	@ (80019a8 <UART2_IRQHandler+0x100>)
 8001968:	6893      	ldr	r3, [r2, #8]
 800196a:	2140      	movs	r1, #64	@ 0x40
 800196c:	438b      	bics	r3, r1
 800196e:	6093      	str	r3, [r2, #8]
 8001970:	e7c0      	b.n	80018f4 <UART2_IRQHandler+0x4c>
 8001972:	2c00      	cmp	r4, #0
 8001974:	d0be      	beq.n	80018f4 <UART2_IRQHandler+0x4c>
 8001976:	e7e8      	b.n	800194a <UART2_IRQHandler+0xa2>
 8001978:	4b0b      	ldr	r3, [pc, #44]	@ (80019a8 <UART2_IRQHandler+0x100>)
 800197a:	6a58      	ldr	r0, [r3, #36]	@ 0x24
 800197c:	b2c0      	uxtb	r0, r0
 800197e:	f7ff fd83 	bl	8001488 <UART_RxCpltCallback>
 8001982:	e7e6      	b.n	8001952 <UART2_IRQHandler+0xaa>
 8001984:	4b08      	ldr	r3, [pc, #32]	@ (80019a8 <UART2_IRQHandler+0x100>)
 8001986:	2280      	movs	r2, #128	@ 0x80
 8001988:	0352      	lsls	r2, r2, #13
 800198a:	621a      	str	r2, [r3, #32]
 800198c:	e7b2      	b.n	80018f4 <UART2_IRQHandler+0x4c>
 800198e:	f3ef 8110 	mrs	r1, PRIMASK
 8001992:	2301      	movs	r3, #1
 8001994:	f383 8810 	msr	PRIMASK, r3
 8001998:	4a03      	ldr	r2, [pc, #12]	@ (80019a8 <UART2_IRQHandler+0x100>)
 800199a:	6813      	ldr	r3, [r2, #0]
 800199c:	2040      	movs	r0, #64	@ 0x40
 800199e:	4383      	bics	r3, r0
 80019a0:	6013      	str	r3, [r2, #0]
 80019a2:	f381 8810 	msr	PRIMASK, r1
 80019a6:	e7a5      	b.n	80018f4 <UART2_IRQHandler+0x4c>
 80019a8:	40004400 	.word	0x40004400

080019ac <Restart>:
 80019ac:	4b0c      	ldr	r3, [pc, #48]	@ (80019e0 <Restart+0x34>)
 80019ae:	4a0d      	ldr	r2, [pc, #52]	@ (80019e4 <Restart+0x38>)
 80019b0:	601a      	str	r2, [r3, #0]
 80019b2:	4a0d      	ldr	r2, [pc, #52]	@ (80019e8 <Restart+0x3c>)
 80019b4:	601a      	str	r2, [r3, #0]
 80019b6:	2200      	movs	r2, #0
 80019b8:	605a      	str	r2, [r3, #4]
 80019ba:	320a      	adds	r2, #10
 80019bc:	609a      	str	r2, [r3, #8]
 80019be:	e002      	b.n	80019c6 <Restart+0x1a>
 80019c0:	2300      	movs	r3, #0
 80019c2:	2b01      	cmp	r3, #1
 80019c4:	d005      	beq.n	80019d2 <Restart+0x26>
 80019c6:	4b06      	ldr	r3, [pc, #24]	@ (80019e0 <Restart+0x34>)
 80019c8:	68db      	ldr	r3, [r3, #12]
 80019ca:	075b      	lsls	r3, r3, #29
 80019cc:	d1f8      	bne.n	80019c0 <Restart+0x14>
 80019ce:	2301      	movs	r3, #1
 80019d0:	e7f7      	b.n	80019c2 <Restart+0x16>
 80019d2:	4b03      	ldr	r3, [pc, #12]	@ (80019e0 <Restart+0x34>)
 80019d4:	220a      	movs	r2, #10
 80019d6:	611a      	str	r2, [r3, #16]
 80019d8:	4a04      	ldr	r2, [pc, #16]	@ (80019ec <Restart+0x40>)
 80019da:	601a      	str	r2, [r3, #0]
 80019dc:	b672      	cpsid	i
 80019de:	e7fe      	b.n	80019de <Restart+0x32>
 80019e0:	40003000 	.word	0x40003000
 80019e4:	0000cccc 	.word	0x0000cccc
 80019e8:	00005555 	.word	0x00005555
 80019ec:	0000aaaa 	.word	0x0000aaaa

080019f0 <SendButton>:
 80019f0:	b510      	push	{r4, lr}
 80019f2:	2000      	movs	r0, #0
 80019f4:	f001 f800 	bl	80029f8 <dwt_starttx>
 80019f8:	bd10      	pop	{r4, pc}

080019fa <GPIO_EXTI4_15_Callback>:
 80019fa:	b510      	push	{r4, lr}
 80019fc:	f7ff fff8 	bl	80019f0 <SendButton>
 8001a00:	bd10      	pop	{r4, pc}
	...

08001a04 <cmd_onERROR>:
 8001a04:	b530      	push	{r4, r5, lr}
 8001a06:	4c15      	ldr	r4, [pc, #84]	@ (8001a5c <cmd_onERROR+0x58>)
 8001a08:	44a5      	add	sp, r4
 8001a0a:	0004      	movs	r4, r0
 8001a0c:	466a      	mov	r2, sp
 8001a0e:	4b14      	ldr	r3, [pc, #80]	@ (8001a60 <cmd_onERROR+0x5c>)
 8001a10:	cb21      	ldmia	r3!, {r0, r5}
 8001a12:	c221      	stmia	r2!, {r0, r5}
 8001a14:	781b      	ldrb	r3, [r3, #0]
 8001a16:	7013      	strb	r3, [r2, #0]
 8001a18:	0020      	movs	r0, r4
 8001a1a:	f7fe fbd3 	bl	80001c4 <strlen>
 8001a1e:	23fb      	movs	r3, #251	@ 0xfb
 8001a20:	005b      	lsls	r3, r3, #1
 8001a22:	4298      	cmp	r0, r3
 8001a24:	d30a      	bcc.n	8001a3c <cmd_onERROR+0x38>
 8001a26:	4668      	mov	r0, sp
 8001a28:	f7fe fbcc 	bl	80001c4 <strlen>
 8001a2c:	0001      	movs	r1, r0
 8001a2e:	4668      	mov	r0, sp
 8001a30:	f7ff fd84 	bl	800153c <port_tx_msg>
 8001a34:	2381      	movs	r3, #129	@ 0x81
 8001a36:	009b      	lsls	r3, r3, #2
 8001a38:	449d      	add	sp, r3
 8001a3a:	bd30      	pop	{r4, r5, pc}
 8001a3c:	0021      	movs	r1, r4
 8001a3e:	466b      	mov	r3, sp
 8001a40:	1d98      	adds	r0, r3, #6
 8001a42:	f002 f9e3 	bl	8003e0c <strcpy>
 8001a46:	0020      	movs	r0, r4
 8001a48:	f7fe fbbc 	bl	80001c4 <strlen>
 8001a4c:	3006      	adds	r0, #6
 8001a4e:	4468      	add	r0, sp
 8001a50:	4904      	ldr	r1, [pc, #16]	@ (8001a64 <cmd_onERROR+0x60>)
 8001a52:	2203      	movs	r2, #3
 8001a54:	f002 f9e2 	bl	8003e1c <memcpy>
 8001a58:	e7e5      	b.n	8001a26 <cmd_onERROR+0x22>
 8001a5a:	46c0      	nop			@ (mov r8, r8)
 8001a5c:	fffffdfc 	.word	0xfffffdfc
 8001a60:	08004ec4 	.word	0x08004ec4
 8001a64:	08004ed0 	.word	0x08004ed0

08001a68 <command_parser>:
 8001a68:	b5f0      	push	{r4, r5, r6, r7, lr}
 8001a6a:	46c6      	mov	lr, r8
 8001a6c:	b500      	push	{lr}
 8001a6e:	b08a      	sub	sp, #40	@ 0x28
 8001a70:	0005      	movs	r5, r0
 8001a72:	2224      	movs	r2, #36	@ 0x24
 8001a74:	2100      	movs	r1, #0
 8001a76:	a801      	add	r0, sp, #4
 8001a78:	f002 f982 	bl	8003d80 <memset>
 8001a7c:	e006      	b.n	8001a8c <command_parser+0x24>
 8001a7e:	700a      	strb	r2, [r1, #0]
 8001a80:	9b01      	ldr	r3, [sp, #4]
 8001a82:	3301      	adds	r3, #1
 8001a84:	9301      	str	r3, [sp, #4]
 8001a86:	5ceb      	ldrb	r3, [r5, r3]
 8001a88:	2b00      	cmp	r3, #0
 8001a8a:	d00a      	beq.n	8001aa2 <command_parser+0x3a>
 8001a8c:	9b01      	ldr	r3, [sp, #4]
 8001a8e:	18e9      	adds	r1, r5, r3
 8001a90:	5cea      	ldrb	r2, [r5, r3]
 8001a92:	4b2d      	ldr	r3, [pc, #180]	@ (8001b48 <command_parser+0xe0>)
 8001a94:	5c98      	ldrb	r0, [r3, r2]
 8001a96:	2303      	movs	r3, #3
 8001a98:	4003      	ands	r3, r0
 8001a9a:	2b02      	cmp	r3, #2
 8001a9c:	d1ef      	bne.n	8001a7e <command_parser+0x16>
 8001a9e:	3a20      	subs	r2, #32
 8001aa0:	e7ed      	b.n	8001a7e <command_parser+0x16>
 8001aa2:	492a      	ldr	r1, [pc, #168]	@ (8001b4c <command_parser+0xe4>)
 8001aa4:	ab08      	add	r3, sp, #32
 8001aa6:	aa03      	add	r2, sp, #12
 8001aa8:	0028      	movs	r0, r5
 8001aaa:	f002 f93d 	bl	8003d28 <siscanf>
 8001aae:	2300      	movs	r3, #0
 8001ab0:	9301      	str	r3, [sp, #4]
 8001ab2:	2600      	movs	r6, #0
 8001ab4:	e001      	b.n	8001aba <command_parser+0x52>
 8001ab6:	3401      	adds	r4, #1
 8001ab8:	9401      	str	r4, [sp, #4]
 8001aba:	9c01      	ldr	r4, [sp, #4]
 8001abc:	4a24      	ldr	r2, [pc, #144]	@ (8001b50 <command_parser+0xe8>)
 8001abe:	0063      	lsls	r3, r4, #1
 8001ac0:	191b      	adds	r3, r3, r4
 8001ac2:	009b      	lsls	r3, r3, #2
 8001ac4:	589f      	ldr	r7, [r3, r2]
 8001ac6:	2f00      	cmp	r7, #0
 8001ac8:	d01a      	beq.n	8001b00 <command_parser+0x98>
 8001aca:	0063      	lsls	r3, r4, #1
 8001acc:	191b      	adds	r3, r3, r4
 8001ace:	009b      	lsls	r3, r3, #2
 8001ad0:	4e1f      	ldr	r6, [pc, #124]	@ (8001b50 <command_parser+0xe8>)
 8001ad2:	199e      	adds	r6, r3, r6
 8001ad4:	0039      	movs	r1, r7
 8001ad6:	a803      	add	r0, sp, #12
 8001ad8:	f7fe fb6a 	bl	80001b0 <strcmp>
 8001adc:	2800      	cmp	r0, #0
 8001ade:	d1ea      	bne.n	8001ab6 <command_parser+0x4e>
 8001ae0:	a803      	add	r0, sp, #12
 8001ae2:	f7fe fb6f 	bl	80001c4 <strlen>
 8001ae6:	4680      	mov	r8, r0
 8001ae8:	0038      	movs	r0, r7
 8001aea:	f7fe fb6b 	bl	80001c4 <strlen>
 8001aee:	4580      	cmp	r8, r0
 8001af0:	d1e1      	bne.n	8001ab6 <command_parser+0x4e>
 8001af2:	2301      	movs	r3, #1
 8001af4:	9302      	str	r3, [sp, #8]
 8001af6:	6873      	ldr	r3, [r6, #4]
 8001af8:	2b00      	cmp	r3, #0
 8001afa:	d1dc      	bne.n	8001ab6 <command_parser+0x4e>
 8001afc:	3302      	adds	r3, #2
 8001afe:	9302      	str	r3, [sp, #8]
 8001b00:	9b02      	ldr	r3, [sp, #8]
 8001b02:	2b01      	cmp	r3, #1
 8001b04:	d005      	beq.n	8001b12 <command_parser+0xaa>
 8001b06:	2b02      	cmp	r3, #2
 8001b08:	d008      	beq.n	8001b1c <command_parser+0xb4>
 8001b0a:	b00a      	add	sp, #40	@ 0x28
 8001b0c:	bc80      	pop	{r7}
 8001b0e:	46b8      	mov	r8, r7
 8001b10:	bdf0      	pop	{r4, r5, r6, r7, pc}
 8001b12:	4810      	ldr	r0, [pc, #64]	@ (8001b54 <command_parser+0xec>)
 8001b14:	a901      	add	r1, sp, #4
 8001b16:	f7ff ff75 	bl	8001a04 <cmd_onERROR>
 8001b1a:	e7f6      	b.n	8001b0a <command_parser+0xa2>
 8001b1c:	f000 fbe6 	bl	80022ec <get_pbssConfig>
 8001b20:	0001      	movs	r1, r0
 8001b22:	68b3      	ldr	r3, [r6, #8]
 8001b24:	9a08      	ldr	r2, [sp, #32]
 8001b26:	0028      	movs	r0, r5
 8001b28:	4798      	blx	r3
 8001b2a:	1e04      	subs	r4, r0, #0
 8001b2c:	9009      	str	r0, [sp, #36]	@ 0x24
 8001b2e:	d006      	beq.n	8001b3e <command_parser+0xd6>
 8001b30:	f7fe fb48 	bl	80001c4 <strlen>
 8001b34:	0001      	movs	r1, r0
 8001b36:	0020      	movs	r0, r4
 8001b38:	f7ff fd00 	bl	800153c <port_tx_msg>
 8001b3c:	e7e5      	b.n	8001b0a <command_parser+0xa2>
 8001b3e:	4806      	ldr	r0, [pc, #24]	@ (8001b58 <command_parser+0xf0>)
 8001b40:	a901      	add	r1, sp, #4
 8001b42:	f7ff ff5f 	bl	8001a04 <cmd_onERROR>
 8001b46:	e7e0      	b.n	8001b0a <command_parser+0xa2>
 8001b48:	08005519 	.word	0x08005519
 8001b4c:	08004ed4 	.word	0x08004ed4
 8001b50:	080051c4 	.word	0x080051c4
 8001b54:	08004edc 	.word	0x08004edc
 8001b58:	08004ef0 	.word	0x08004ef0

08001b5c <f_txCode>:
 8001b5c:	b2d2      	uxtb	r2, r2
 8001b5e:	710a      	strb	r2, [r1, #4]
 8001b60:	714a      	strb	r2, [r1, #5]
 8001b62:	4801      	ldr	r0, [pc, #4]	@ (8001b68 <f_txCode+0xc>)
 8001b64:	4770      	bx	lr
 8001b66:	46c0      	nop			@ (mov r8, r8)
 8001b68:	080052cc 	.word	0x080052cc

08001b6c <f_nsSFD>:
 8001b6c:	1e53      	subs	r3, r2, #1
 8001b6e:	419a      	sbcs	r2, r3
 8001b70:	718a      	strb	r2, [r1, #6]
 8001b72:	4801      	ldr	r0, [pc, #4]	@ (8001b78 <f_nsSFD+0xc>)
 8001b74:	4770      	bx	lr
 8001b76:	46c0      	nop			@ (mov r8, r8)
 8001b78:	080052cc 	.word	0x080052cc

08001b7c <f_phrMode>:
 8001b7c:	1e53      	subs	r3, r2, #1
 8001b7e:	419a      	sbcs	r2, r3
 8001b80:	720a      	strb	r2, [r1, #8]
 8001b82:	4801      	ldr	r0, [pc, #4]	@ (8001b88 <f_phrMode+0xc>)
 8001b84:	4770      	bx	lr
 8001b86:	46c0      	nop			@ (mov r8, r8)
 8001b88:	080052cc 	.word	0x080052cc

08001b8c <f_sfdTO>:
 8001b8c:	b293      	uxth	r3, r2
 8001b8e:	20ff      	movs	r0, #255	@ 0xff
 8001b90:	4002      	ands	r2, r0
 8001b92:	728a      	strb	r2, [r1, #10]
 8001b94:	0a1b      	lsrs	r3, r3, #8
 8001b96:	72cb      	strb	r3, [r1, #11]
 8001b98:	4800      	ldr	r0, [pc, #0]	@ (8001b9c <f_sfdTO+0x10>)
 8001b9a:	4770      	bx	lr
 8001b9c:	080052cc 	.word	0x080052cc

08001ba0 <f_smartPowerEn>:
 8001ba0:	1e53      	subs	r3, r2, #1
 8001ba2:	419a      	sbcs	r2, r3
 8001ba4:	760a      	strb	r2, [r1, #24]
 8001ba6:	2300      	movs	r3, #0
 8001ba8:	764b      	strb	r3, [r1, #25]
 8001baa:	4801      	ldr	r0, [pc, #4]	@ (8001bb0 <f_smartPowerEn+0x10>)
 8001bac:	4770      	bx	lr
 8001bae:	46c0      	nop			@ (mov r8, r8)
 8001bb0:	080052cc 	.word	0x080052cc

08001bb4 <f_interval_in_ms>:
 8001bb4:	730a      	strb	r2, [r1, #12]
 8001bb6:	0a13      	lsrs	r3, r2, #8
 8001bb8:	734b      	strb	r3, [r1, #13]
 8001bba:	0c13      	lsrs	r3, r2, #16
 8001bbc:	738b      	strb	r3, [r1, #14]
 8001bbe:	0e12      	lsrs	r2, r2, #24
 8001bc0:	73ca      	strb	r2, [r1, #15]
 8001bc2:	4801      	ldr	r0, [pc, #4]	@ (8001bc8 <f_interval_in_ms+0x14>)
 8001bc4:	4770      	bx	lr
 8001bc6:	46c0      	nop			@ (mov r8, r8)
 8001bc8:	080052cc 	.word	0x080052cc

08001bcc <f_interval_slow_in_ms>:
 8001bcc:	740a      	strb	r2, [r1, #16]
 8001bce:	0a13      	lsrs	r3, r2, #8
 8001bd0:	744b      	strb	r3, [r1, #17]
 8001bd2:	0c13      	lsrs	r3, r2, #16
 8001bd4:	748b      	strb	r3, [r1, #18]
 8001bd6:	0e12      	lsrs	r2, r2, #24
 8001bd8:	74ca      	strb	r2, [r1, #19]
 8001bda:	4801      	ldr	r0, [pc, #4]	@ (8001be0 <f_interval_slow_in_ms+0x14>)
 8001bdc:	4770      	bx	lr
 8001bde:	46c0      	nop			@ (mov r8, r8)
 8001be0:	080052cc 	.word	0x080052cc

08001be4 <f_randomness>:
 8001be4:	750a      	strb	r2, [r1, #20]
 8001be6:	4801      	ldr	r0, [pc, #4]	@ (8001bec <f_randomness+0x8>)
 8001be8:	4770      	bx	lr
 8001bea:	46c0      	nop			@ (mov r8, r8)
 8001bec:	080052cc 	.word	0x080052cc

08001bf0 <f_tcwm>:
 8001bf0:	4800      	ldr	r0, [pc, #0]	@ (8001bf4 <f_tcwm+0x4>)
 8001bf2:	4770      	bx	lr
 8001bf4:	080052cc 	.word	0x080052cc

08001bf8 <f_tcfm>:
 8001bf8:	4800      	ldr	r0, [pc, #0]	@ (8001bfc <f_tcfm+0x4>)
 8001bfa:	4770      	bx	lr
 8001bfc:	080052cc 	.word	0x080052cc

08001c00 <f_anchorID>:
 8001c00:	3123      	adds	r1, #35	@ 0x23
 8001c02:	700a      	strb	r2, [r1, #0]
 8001c04:	0a13      	lsrs	r3, r2, #8
 8001c06:	704b      	strb	r3, [r1, #1]
 8001c08:	0c13      	lsrs	r3, r2, #16
 8001c0a:	708b      	strb	r3, [r1, #2]
 8001c0c:	0e12      	lsrs	r2, r2, #24
 8001c0e:	70ca      	strb	r2, [r1, #3]
 8001c10:	4800      	ldr	r0, [pc, #0]	@ (8001c14 <f_anchorID+0x14>)
 8001c12:	4770      	bx	lr
 8001c14:	080052cc 	.word	0x080052cc

08001c18 <f_chan>:
 8001c18:	b510      	push	{r4, lr}
 8001c1a:	000c      	movs	r4, r1
 8001c1c:	0010      	movs	r0, r2
 8001c1e:	f001 fe6b 	bl	80038f8 <chan_to_deca>
 8001c22:	2800      	cmp	r0, #0
 8001c24:	db02      	blt.n	8001c2c <f_chan+0x14>
 8001c26:	7020      	strb	r0, [r4, #0]
 8001c28:	4801      	ldr	r0, [pc, #4]	@ (8001c30 <f_chan+0x18>)
 8001c2a:	bd10      	pop	{r4, pc}
 8001c2c:	2000      	movs	r0, #0
 8001c2e:	e7fc      	b.n	8001c2a <f_chan+0x12>
 8001c30:	080052cc 	.word	0x080052cc

08001c34 <f_prf>:
 8001c34:	b510      	push	{r4, lr}
 8001c36:	000c      	movs	r4, r1
 8001c38:	0010      	movs	r0, r2
 8001c3a:	f001 fe93 	bl	8003964 <prf_to_deca>
 8001c3e:	2800      	cmp	r0, #0
 8001c40:	db02      	blt.n	8001c48 <f_prf+0x14>
 8001c42:	7060      	strb	r0, [r4, #1]
 8001c44:	4801      	ldr	r0, [pc, #4]	@ (8001c4c <f_prf+0x18>)
 8001c46:	bd10      	pop	{r4, pc}
 8001c48:	2000      	movs	r0, #0
 8001c4a:	e7fc      	b.n	8001c46 <f_prf+0x12>
 8001c4c:	080052cc 	.word	0x080052cc

08001c50 <f_plen>:
 8001c50:	b510      	push	{r4, lr}
 8001c52:	000c      	movs	r4, r1
 8001c54:	0010      	movs	r0, r2
 8001c56:	f001 fec9 	bl	80039ec <plen_to_deca>
 8001c5a:	2800      	cmp	r0, #0
 8001c5c:	db02      	blt.n	8001c64 <f_plen+0x14>
 8001c5e:	70a0      	strb	r0, [r4, #2]
 8001c60:	4801      	ldr	r0, [pc, #4]	@ (8001c68 <f_plen+0x18>)
 8001c62:	bd10      	pop	{r4, pc}
 8001c64:	2000      	movs	r0, #0
 8001c66:	e7fc      	b.n	8001c62 <f_plen+0x12>
 8001c68:	080052cc 	.word	0x080052cc

08001c6c <f_rxPAC>:
 8001c6c:	b510      	push	{r4, lr}
 8001c6e:	000c      	movs	r4, r1
 8001c70:	0010      	movs	r0, r2
 8001c72:	f001 fe8d 	bl	8003990 <pac_to_deca>
 8001c76:	2800      	cmp	r0, #0
 8001c78:	db02      	blt.n	8001c80 <f_rxPAC+0x14>
 8001c7a:	70e0      	strb	r0, [r4, #3]
 8001c7c:	4801      	ldr	r0, [pc, #4]	@ (8001c84 <f_rxPAC+0x18>)
 8001c7e:	bd10      	pop	{r4, pc}
 8001c80:	2000      	movs	r0, #0
 8001c82:	e7fc      	b.n	8001c7e <f_rxPAC+0x12>
 8001c84:	080052cc 	.word	0x080052cc

08001c88 <f_dataRate>:
 8001c88:	b510      	push	{r4, lr}
 8001c8a:	000c      	movs	r4, r1
 8001c8c:	0010      	movs	r0, r2
 8001c8e:	f001 fe3f 	bl	8003910 <bitrate_to_deca>
 8001c92:	2800      	cmp	r0, #0
 8001c94:	db02      	blt.n	8001c9c <f_dataRate+0x14>
 8001c96:	71e0      	strb	r0, [r4, #7]
 8001c98:	4801      	ldr	r0, [pc, #4]	@ (8001ca0 <f_dataRate+0x18>)
 8001c9a:	bd10      	pop	{r4, pc}
 8001c9c:	2000      	movs	r0, #0
 8001c9e:	e7fc      	b.n	8001c9a <f_dataRate+0x12>
 8001ca0:	080052cc 	.word	0x080052cc

08001ca4 <f_help_app>:
 8001ca4:	b511      	push	{r0, r4, lr}
 8001ca6:	b0ff      	sub	sp, #508	@ 0x1fc
 8001ca8:	2400      	movs	r4, #0
 8001caa:	e00b      	b.n	8001cc4 <f_help_app+0x20>
 8001cac:	490a      	ldr	r1, [pc, #40]	@ (8001cd8 <f_help_app+0x34>)
 8001cae:	4668      	mov	r0, sp
 8001cb0:	f002 f818 	bl	8003ce4 <siprintf>
 8001cb4:	4668      	mov	r0, sp
 8001cb6:	f7fe fa85 	bl	80001c4 <strlen>
 8001cba:	0001      	movs	r1, r0
 8001cbc:	4668      	mov	r0, sp
 8001cbe:	f7ff fc3d 	bl	800153c <port_tx_msg>
 8001cc2:	3401      	adds	r4, #1
 8001cc4:	4a05      	ldr	r2, [pc, #20]	@ (8001cdc <f_help_app+0x38>)
 8001cc6:	0063      	lsls	r3, r4, #1
 8001cc8:	191b      	adds	r3, r3, r4
 8001cca:	009b      	lsls	r3, r3, #2
 8001ccc:	589a      	ldr	r2, [r3, r2]
 8001cce:	2a00      	cmp	r2, #0
 8001cd0:	d1ec      	bne.n	8001cac <f_help_app+0x8>
 8001cd2:	4803      	ldr	r0, [pc, #12]	@ (8001ce0 <f_help_app+0x3c>)
 8001cd4:	b07f      	add	sp, #508	@ 0x1fc
 8001cd6:	bd12      	pop	{r1, r4, pc}
 8001cd8:	08004efc 	.word	0x08004efc
 8001cdc:	080051c4 	.word	0x080051c4
 8001ce0:	080052cc 	.word	0x080052cc

08001ce4 <f_restore>:
 8001ce4:	b510      	push	{r4, lr}
 8001ce6:	f000 fb07 	bl	80022f8 <restore_nvm_fconfig>
 8001cea:	4801      	ldr	r0, [pc, #4]	@ (8001cf0 <f_restore+0xc>)
 8001cec:	bd10      	pop	{r4, pc}
 8001cee:	46c0      	nop			@ (mov r8, r8)
 8001cf0:	080052cc 	.word	0x080052cc

08001cf4 <f_restart>:
 8001cf4:	b510      	push	{r4, lr}
 8001cf6:	f7ff fe59 	bl	80019ac <Restart>
 8001cfa:	4801      	ldr	r0, [pc, #4]	@ (8001d00 <f_restart+0xc>)
 8001cfc:	bd10      	pop	{r4, pc}
 8001cfe:	46c0      	nop			@ (mov r8, r8)
 8001d00:	080052cc 	.word	0x080052cc

08001d04 <f_save>:
 8001d04:	b510      	push	{r4, lr}
 8001d06:	0008      	movs	r0, r1
 8001d08:	f000 faa6 	bl	8002258 <save_bssConfig>
 8001d0c:	4800      	ldr	r0, [pc, #0]	@ (8001d10 <f_save+0xc>)
 8001d0e:	bd10      	pop	{r4, pc}
 8001d10:	080052cc 	.word	0x080052cc

08001d14 <f_decaTDoATag>:
 8001d14:	b510      	push	{r4, lr}
 8001d16:	4c29      	ldr	r4, [pc, #164]	@ (8001dbc <f_decaTDoATag+0xa8>)
 8001d18:	44a5      	add	sp, r4
 8001d1a:	ac80      	add	r4, sp, #512	@ 0x200
 8001d1c:	4b28      	ldr	r3, [pc, #160]	@ (8001dc0 <f_decaTDoATag+0xac>)
 8001d1e:	681a      	ldr	r2, [r3, #0]
 8001d20:	9280      	str	r2, [sp, #512]	@ 0x200
 8001d22:	889b      	ldrh	r3, [r3, #4]
 8001d24:	80a3      	strh	r3, [r4, #4]
 8001d26:	4927      	ldr	r1, [pc, #156]	@ (8001dc4 <f_decaTDoATag+0xb0>)
 8001d28:	4a27      	ldr	r2, [pc, #156]	@ (8001dc8 <f_decaTDoATag+0xb4>)
 8001d2a:	4668      	mov	r0, sp
 8001d2c:	f001 ffda 	bl	8003ce4 <siprintf>
 8001d30:	4668      	mov	r0, sp
 8001d32:	f7fe fa47 	bl	80001c4 <strlen>
 8001d36:	4468      	add	r0, sp
 8001d38:	4924      	ldr	r1, [pc, #144]	@ (8001dcc <f_decaTDoATag+0xb8>)
 8001d3a:	220c      	movs	r2, #12
 8001d3c:	f002 f86e 	bl	8003e1c <memcpy>
 8001d40:	4668      	mov	r0, sp
 8001d42:	f7fe fa3f 	bl	80001c4 <strlen>
 8001d46:	4468      	add	r0, sp
 8001d48:	4921      	ldr	r1, [pc, #132]	@ (8001dd0 <f_decaTDoATag+0xbc>)
 8001d4a:	2220      	movs	r2, #32
 8001d4c:	f002 f866 	bl	8003e1c <memcpy>
 8001d50:	4668      	mov	r0, sp
 8001d52:	f7fe fa37 	bl	80001c4 <strlen>
 8001d56:	491f      	ldr	r1, [pc, #124]	@ (8001dd4 <f_decaTDoATag+0xc0>)
 8001d58:	4468      	add	r0, sp
 8001d5a:	0022      	movs	r2, r4
 8001d5c:	f001 ffc2 	bl	8003ce4 <siprintf>
 8001d60:	4668      	mov	r0, sp
 8001d62:	f7fe fa2f 	bl	80001c4 <strlen>
 8001d66:	4b1c      	ldr	r3, [pc, #112]	@ (8001dd8 <f_decaTDoATag+0xc4>)
 8001d68:	4a1c      	ldr	r2, [pc, #112]	@ (8001ddc <f_decaTDoATag+0xc8>)
 8001d6a:	491d      	ldr	r1, [pc, #116]	@ (8001de0 <f_decaTDoATag+0xcc>)
 8001d6c:	4468      	add	r0, sp
 8001d6e:	f001 ffb9 	bl	8003ce4 <siprintf>
 8001d72:	4668      	mov	r0, sp
 8001d74:	f7fe fa26 	bl	80001c4 <strlen>
 8001d78:	4a1a      	ldr	r2, [pc, #104]	@ (8001de4 <f_decaTDoATag+0xd0>)
 8001d7a:	491b      	ldr	r1, [pc, #108]	@ (8001de8 <f_decaTDoATag+0xd4>)
 8001d7c:	4468      	add	r0, sp
 8001d7e:	f001 ffb1 	bl	8003ce4 <siprintf>
 8001d82:	4668      	mov	r0, sp
 8001d84:	f7fe fa1e 	bl	80001c4 <strlen>
 8001d88:	1f82      	subs	r2, r0, #6
 8001d8a:	4918      	ldr	r1, [pc, #96]	@ (8001dec <f_decaTDoATag+0xd8>)
 8001d8c:	466b      	mov	r3, sp
 8001d8e:	1c98      	adds	r0, r3, #2
 8001d90:	f001 ffa8 	bl	8003ce4 <siprintf>
 8001d94:	237b      	movs	r3, #123	@ 0x7b
 8001d96:	466a      	mov	r2, sp
 8001d98:	7193      	strb	r3, [r2, #6]
 8001d9a:	4668      	mov	r0, sp
 8001d9c:	f7fe fa12 	bl	80001c4 <strlen>
 8001da0:	0001      	movs	r1, r0
 8001da2:	4668      	mov	r0, sp
 8001da4:	f7ff fbca 	bl	800153c <port_tx_msg>
 8001da8:	4811      	ldr	r0, [pc, #68]	@ (8001df0 <f_decaTDoATag+0xdc>)
 8001daa:	2102      	movs	r1, #2
 8001dac:	f7ff fbc6 	bl	800153c <port_tx_msg>
 8001db0:	4810      	ldr	r0, [pc, #64]	@ (8001df4 <f_decaTDoATag+0xe0>)
 8001db2:	2382      	movs	r3, #130	@ 0x82
 8001db4:	009b      	lsls	r3, r3, #2
 8001db6:	449d      	add	sp, r3
 8001db8:	bd10      	pop	{r4, pc}
 8001dba:	46c0      	nop			@ (mov r8, r8)
 8001dbc:	fffffdf8 	.word	0xfffffdf8
 8001dc0:	08004fb8 	.word	0x08004fb8
 8001dc4:	08004f04 	.word	0x08004f04
 8001dc8:	00005a5a 	.word	0x00005a5a
 8001dcc:	08004f0c 	.word	0x08004f0c
 8001dd0:	08004f18 	.word	0x08004f18
 8001dd4:	08004f38 	.word	0x08004f38
 8001dd8:	08004f4c 	.word	0x08004f4c
 8001ddc:	08004f58 	.word	0x08004f58
 8001de0:	08004f64 	.word	0x08004f64
 8001de4:	08004f78 	.word	0x08004f78
 8001de8:	08004fa0 	.word	0x08004fa0
 8001dec:	08004fb0 	.word	0x08004fb0
 8001df0:	08004ed0 	.word	0x08004ed0
 8001df4:	080052cc 	.word	0x080052cc

08001df8 <f_jstat>:
 8001df8:	b5f0      	push	{r4, r5, r6, r7, lr}
 8001dfa:	46d6      	mov	lr, sl
 8001dfc:	464f      	mov	r7, r9
 8001dfe:	4646      	mov	r6, r8
 8001e00:	b5c0      	push	{r6, r7, lr}
 8001e02:	4c89      	ldr	r4, [pc, #548]	@ (8002028 <f_jstat+0x230>)
 8001e04:	44a5      	add	sp, r4
 8001e06:	000c      	movs	r4, r1
 8001e08:	4988      	ldr	r1, [pc, #544]	@ (800202c <f_jstat+0x234>)
 8001e0a:	4a89      	ldr	r2, [pc, #548]	@ (8002030 <f_jstat+0x238>)
 8001e0c:	a806      	add	r0, sp, #24
 8001e0e:	f001 ff69 	bl	8003ce4 <siprintf>
 8001e12:	a806      	add	r0, sp, #24
 8001e14:	f7fe f9d6 	bl	80001c4 <strlen>
 8001e18:	ab06      	add	r3, sp, #24
 8001e1a:	469c      	mov	ip, r3
 8001e1c:	4460      	add	r0, ip
 8001e1e:	4985      	ldr	r1, [pc, #532]	@ (8002034 <f_jstat+0x23c>)
 8001e20:	2211      	movs	r2, #17
 8001e22:	f001 fffb 	bl	8003e1c <memcpy>
 8001e26:	a806      	add	r0, sp, #24
 8001e28:	f7fe f9cc 	bl	80001c4 <strlen>
 8001e2c:	0005      	movs	r5, r0
 8001e2e:	7820      	ldrb	r0, [r4, #0]
 8001e30:	f001 fd69 	bl	8003906 <deca_to_chan>
 8001e34:	0002      	movs	r2, r0
 8001e36:	4980      	ldr	r1, [pc, #512]	@ (8002038 <f_jstat+0x240>)
 8001e38:	ab06      	add	r3, sp, #24
 8001e3a:	1958      	adds	r0, r3, r5
 8001e3c:	f001 ff52 	bl	8003ce4 <siprintf>
 8001e40:	a806      	add	r0, sp, #24
 8001e42:	f7fe f9bf 	bl	80001c4 <strlen>
 8001e46:	0005      	movs	r5, r0
 8001e48:	7860      	ldrb	r0, [r4, #1]
 8001e4a:	f001 fd96 	bl	800397a <deca_to_prf>
 8001e4e:	0002      	movs	r2, r0
 8001e50:	497a      	ldr	r1, [pc, #488]	@ (800203c <f_jstat+0x244>)
 8001e52:	ab06      	add	r3, sp, #24
 8001e54:	1958      	adds	r0, r3, r5
 8001e56:	f001 ff45 	bl	8003ce4 <siprintf>
 8001e5a:	a806      	add	r0, sp, #24
 8001e5c:	f7fe f9b2 	bl	80001c4 <strlen>
 8001e60:	0005      	movs	r5, r0
 8001e62:	78a0      	ldrb	r0, [r4, #2]
 8001e64:	f001 fdf0 	bl	8003a48 <deca_to_plen>
 8001e68:	0002      	movs	r2, r0
 8001e6a:	4975      	ldr	r1, [pc, #468]	@ (8002040 <f_jstat+0x248>)
 8001e6c:	ab06      	add	r3, sp, #24
 8001e6e:	1958      	adds	r0, r3, r5
 8001e70:	f001 ff38 	bl	8003ce4 <siprintf>
 8001e74:	a806      	add	r0, sp, #24
 8001e76:	f7fe f9a5 	bl	80001c4 <strlen>
 8001e7a:	0005      	movs	r5, r0
 8001e7c:	79e0      	ldrb	r0, [r4, #7]
 8001e7e:	f001 fd5d 	bl	800393c <deca_to_bitrate>
 8001e82:	0002      	movs	r2, r0
 8001e84:	496f      	ldr	r1, [pc, #444]	@ (8002044 <f_jstat+0x24c>)
 8001e86:	ab06      	add	r3, sp, #24
 8001e88:	1958      	adds	r0, r3, r5
 8001e8a:	f001 ff2b 	bl	8003ce4 <siprintf>
 8001e8e:	a806      	add	r0, sp, #24
 8001e90:	f7fe f998 	bl	80001c4 <strlen>
 8001e94:	7922      	ldrb	r2, [r4, #4]
 8001e96:	496c      	ldr	r1, [pc, #432]	@ (8002048 <f_jstat+0x250>)
 8001e98:	ab06      	add	r3, sp, #24
 8001e9a:	469c      	mov	ip, r3
 8001e9c:	4460      	add	r0, ip
 8001e9e:	f001 ff21 	bl	8003ce4 <siprintf>
 8001ea2:	a806      	add	r0, sp, #24
 8001ea4:	f7fe f98e 	bl	80001c4 <strlen>
 8001ea8:	0005      	movs	r5, r0
 8001eaa:	78e0      	ldrb	r0, [r4, #3]
 8001eac:	f001 fd87 	bl	80039be <deca_to_pac>
 8001eb0:	0002      	movs	r2, r0
 8001eb2:	4966      	ldr	r1, [pc, #408]	@ (800204c <f_jstat+0x254>)
 8001eb4:	ab06      	add	r3, sp, #24
 8001eb6:	1958      	adds	r0, r3, r5
 8001eb8:	f001 ff14 	bl	8003ce4 <siprintf>
 8001ebc:	a806      	add	r0, sp, #24
 8001ebe:	f7fe f981 	bl	80001c4 <strlen>
 8001ec2:	79a2      	ldrb	r2, [r4, #6]
 8001ec4:	4962      	ldr	r1, [pc, #392]	@ (8002050 <f_jstat+0x258>)
 8001ec6:	ab06      	add	r3, sp, #24
 8001ec8:	469c      	mov	ip, r3
 8001eca:	4460      	add	r0, ip
 8001ecc:	f001 ff0a 	bl	8003ce4 <siprintf>
 8001ed0:	a806      	add	r0, sp, #24
 8001ed2:	f7fe f977 	bl	80001c4 <strlen>
 8001ed6:	7a22      	ldrb	r2, [r4, #8]
 8001ed8:	495e      	ldr	r1, [pc, #376]	@ (8002054 <f_jstat+0x25c>)
 8001eda:	ab06      	add	r3, sp, #24
 8001edc:	469c      	mov	ip, r3
 8001ede:	4460      	add	r0, ip
 8001ee0:	f001 ff00 	bl	8003ce4 <siprintf>
 8001ee4:	a806      	add	r0, sp, #24
 8001ee6:	f7fe f96d 	bl	80001c4 <strlen>
 8001eea:	7e23      	ldrb	r3, [r4, #24]
 8001eec:	7e62      	ldrb	r2, [r4, #25]
 8001eee:	0212      	lsls	r2, r2, #8
 8001ef0:	431a      	orrs	r2, r3
 8001ef2:	4959      	ldr	r1, [pc, #356]	@ (8002058 <f_jstat+0x260>)
 8001ef4:	ab06      	add	r3, sp, #24
 8001ef6:	469c      	mov	ip, r3
 8001ef8:	4460      	add	r0, ip
 8001efa:	f001 fef3 	bl	8003ce4 <siprintf>
 8001efe:	a806      	add	r0, sp, #24
 8001f00:	f7fe f960 	bl	80001c4 <strlen>
 8001f04:	7b23      	ldrb	r3, [r4, #12]
 8001f06:	7b62      	ldrb	r2, [r4, #13]
 8001f08:	0212      	lsls	r2, r2, #8
 8001f0a:	431a      	orrs	r2, r3
 8001f0c:	7ba3      	ldrb	r3, [r4, #14]
 8001f0e:	041b      	lsls	r3, r3, #16
 8001f10:	4313      	orrs	r3, r2
 8001f12:	7be2      	ldrb	r2, [r4, #15]
 8001f14:	0612      	lsls	r2, r2, #24
 8001f16:	431a      	orrs	r2, r3
 8001f18:	4950      	ldr	r1, [pc, #320]	@ (800205c <f_jstat+0x264>)
 8001f1a:	ab06      	add	r3, sp, #24
 8001f1c:	469c      	mov	ip, r3
 8001f1e:	4460      	add	r0, ip
 8001f20:	f001 fee0 	bl	8003ce4 <siprintf>
 8001f24:	a806      	add	r0, sp, #24
 8001f26:	f7fe f94d 	bl	80001c4 <strlen>
 8001f2a:	7c23      	ldrb	r3, [r4, #16]
 8001f2c:	7c62      	ldrb	r2, [r4, #17]
 8001f2e:	0212      	lsls	r2, r2, #8
 8001f30:	431a      	orrs	r2, r3
 8001f32:	7ca3      	ldrb	r3, [r4, #18]
 8001f34:	041b      	lsls	r3, r3, #16
 8001f36:	4313      	orrs	r3, r2
 8001f38:	7ce2      	ldrb	r2, [r4, #19]
 8001f3a:	0612      	lsls	r2, r2, #24
 8001f3c:	431a      	orrs	r2, r3
 8001f3e:	4948      	ldr	r1, [pc, #288]	@ (8002060 <f_jstat+0x268>)
 8001f40:	ab06      	add	r3, sp, #24
 8001f42:	469c      	mov	ip, r3
 8001f44:	4460      	add	r0, ip
 8001f46:	f001 fecd 	bl	8003ce4 <siprintf>
 8001f4a:	a806      	add	r0, sp, #24
 8001f4c:	f7fe f93a 	bl	80001c4 <strlen>
 8001f50:	7d22      	ldrb	r2, [r4, #20]
 8001f52:	4944      	ldr	r1, [pc, #272]	@ (8002064 <f_jstat+0x26c>)
 8001f54:	ab06      	add	r3, sp, #24
 8001f56:	469c      	mov	ip, r3
 8001f58:	4460      	add	r0, ip
 8001f5a:	f001 fec3 	bl	8003ce4 <siprintf>
 8001f5e:	a806      	add	r0, sp, #24
 8001f60:	f7fe f930 	bl	80001c4 <strlen>
 8001f64:	2323      	movs	r3, #35	@ 0x23
 8001f66:	5ce3      	ldrb	r3, [r4, r3]
 8001f68:	2224      	movs	r2, #36	@ 0x24
 8001f6a:	5ca2      	ldrb	r2, [r4, r2]
 8001f6c:	0212      	lsls	r2, r2, #8
 8001f6e:	431a      	orrs	r2, r3
 8001f70:	2325      	movs	r3, #37	@ 0x25
 8001f72:	5ce3      	ldrb	r3, [r4, r3]
 8001f74:	041b      	lsls	r3, r3, #16
 8001f76:	4313      	orrs	r3, r2
 8001f78:	2226      	movs	r2, #38	@ 0x26
 8001f7a:	5ca2      	ldrb	r2, [r4, r2]
 8001f7c:	0612      	lsls	r2, r2, #24
 8001f7e:	431a      	orrs	r2, r3
 8001f80:	4939      	ldr	r1, [pc, #228]	@ (8002068 <f_jstat+0x270>)
 8001f82:	ab06      	add	r3, sp, #24
 8001f84:	469c      	mov	ip, r3
 8001f86:	4460      	add	r0, ip
 8001f88:	f001 feac 	bl	8003ce4 <siprintf>
 8001f8c:	a806      	add	r0, sp, #24
 8001f8e:	f7fe f919 	bl	80001c4 <strlen>
 8001f92:	2322      	movs	r3, #34	@ 0x22
 8001f94:	5ce2      	ldrb	r2, [r4, r3]
 8001f96:	4935      	ldr	r1, [pc, #212]	@ (800206c <f_jstat+0x274>)
 8001f98:	ab06      	add	r3, sp, #24
 8001f9a:	469c      	mov	ip, r3
 8001f9c:	4460      	add	r0, ip
 8001f9e:	f001 fea1 	bl	8003ce4 <siprintf>
 8001fa2:	a806      	add	r0, sp, #24
 8001fa4:	f7fe f90e 	bl	80001c4 <strlen>
 8001fa8:	2321      	movs	r3, #33	@ 0x21
 8001faa:	5ce2      	ldrb	r2, [r4, r3]
 8001fac:	3b01      	subs	r3, #1
 8001fae:	5ce3      	ldrb	r3, [r4, r3]
 8001fb0:	469a      	mov	sl, r3
 8001fb2:	7fe5      	ldrb	r5, [r4, #31]
 8001fb4:	7fa6      	ldrb	r6, [r4, #30]
 8001fb6:	7f67      	ldrb	r7, [r4, #29]
 8001fb8:	7f21      	ldrb	r1, [r4, #28]
 8001fba:	468c      	mov	ip, r1
 8001fbc:	7ee1      	ldrb	r1, [r4, #27]
 8001fbe:	4688      	mov	r8, r1
 8001fc0:	7ea4      	ldrb	r4, [r4, #26]
 8001fc2:	492b      	ldr	r1, [pc, #172]	@ (8002070 <f_jstat+0x278>)
 8001fc4:	ab06      	add	r3, sp, #24
 8001fc6:	4699      	mov	r9, r3
 8001fc8:	4448      	add	r0, r9
 8001fca:	9405      	str	r4, [sp, #20]
 8001fcc:	4643      	mov	r3, r8
 8001fce:	9304      	str	r3, [sp, #16]
 8001fd0:	4663      	mov	r3, ip
 8001fd2:	9303      	str	r3, [sp, #12]
 8001fd4:	9702      	str	r7, [sp, #8]
 8001fd6:	9601      	str	r6, [sp, #4]
 8001fd8:	9500      	str	r5, [sp, #0]
 8001fda:	4653      	mov	r3, sl
 8001fdc:	f001 fe82 	bl	8003ce4 <siprintf>
 8001fe0:	4648      	mov	r0, r9
 8001fe2:	f7fe f8ef 	bl	80001c4 <strlen>
 8001fe6:	1f82      	subs	r2, r0, #6
 8001fe8:	4922      	ldr	r1, [pc, #136]	@ (8002074 <f_jstat+0x27c>)
 8001fea:	201a      	movs	r0, #26
 8001fec:	4468      	add	r0, sp
 8001fee:	f001 fe79 	bl	8003ce4 <siprintf>
 8001ff2:	464b      	mov	r3, r9
 8001ff4:	227b      	movs	r2, #123	@ 0x7b
 8001ff6:	719a      	strb	r2, [r3, #6]
 8001ff8:	0018      	movs	r0, r3
 8001ffa:	f7fe f8e3 	bl	80001c4 <strlen>
 8001ffe:	4448      	add	r0, r9
 8002000:	491d      	ldr	r1, [pc, #116]	@ (8002078 <f_jstat+0x280>)
 8002002:	2203      	movs	r2, #3
 8002004:	f001 ff0a 	bl	8003e1c <memcpy>
 8002008:	4648      	mov	r0, r9
 800200a:	f7fe f8db 	bl	80001c4 <strlen>
 800200e:	0001      	movs	r1, r0
 8002010:	4648      	mov	r0, r9
 8002012:	f7ff fa93 	bl	800153c <port_tx_msg>
 8002016:	4819      	ldr	r0, [pc, #100]	@ (800207c <f_jstat+0x284>)
 8002018:	2386      	movs	r3, #134	@ 0x86
 800201a:	009b      	lsls	r3, r3, #2
 800201c:	449d      	add	sp, r3
 800201e:	bce0      	pop	{r5, r6, r7}
 8002020:	46ba      	mov	sl, r7
 8002022:	46b1      	mov	r9, r6
 8002024:	46a8      	mov	r8, r5
 8002026:	bdf0      	pop	{r4, r5, r6, r7, pc}
 8002028:	fffffde8 	.word	0xfffffde8
 800202c:	08004f04 	.word	0x08004f04
 8002030:	00005a5a 	.word	0x00005a5a
 8002034:	08004fc0 	.word	0x08004fc0
 8002038:	08004fd4 	.word	0x08004fd4
 800203c:	08004fe4 	.word	0x08004fe4
 8002040:	08004ff0 	.word	0x08004ff0
 8002044:	08005000 	.word	0x08005000
 8002048:	08005014 	.word	0x08005014
 800204c:	08005024 	.word	0x08005024
 8002050:	08005030 	.word	0x08005030
 8002054:	08005040 	.word	0x08005040
 8002058:	08005050 	.word	0x08005050
 800205c:	08005064 	.word	0x08005064
 8002060:	08005078 	.word	0x08005078
 8002064:	0800508c 	.word	0x0800508c
 8002068:	080050a0 	.word	0x080050a0
 800206c:	080050b4 	.word	0x080050b4
 8002070:	080050c8 	.word	0x080050c8
 8002074:	08004fb0 	.word	0x08004fb0
 8002078:	08004ed0 	.word	0x08004ed0
 800207c:	080052cc 	.word	0x080052cc

08002080 <f_stat>:
 8002080:	b570      	push	{r4, r5, r6, lr}
 8002082:	0004      	movs	r4, r0
 8002084:	000d      	movs	r5, r1
 8002086:	0016      	movs	r6, r2
 8002088:	f7ff fe44 	bl	8001d14 <f_decaTDoATag>
 800208c:	0032      	movs	r2, r6
 800208e:	0029      	movs	r1, r5
 8002090:	0020      	movs	r0, r4
 8002092:	f7ff feb1 	bl	8001df8 <f_jstat>
 8002096:	4801      	ldr	r0, [pc, #4]	@ (800209c <f_stat+0x1c>)
 8002098:	bd70      	pop	{r4, r5, r6, pc}
 800209a:	46c0      	nop			@ (mov r8, r8)
 800209c:	080052cc 	.word	0x080052cc

080020a0 <waitForCommand>:
 80020a0:	b570      	push	{r4, r5, r6, lr}
 80020a2:	0005      	movs	r5, r0
 80020a4:	000c      	movs	r4, r1
 80020a6:	2902      	cmp	r1, #2
 80020a8:	d841      	bhi.n	800212e <waitForCommand+0x8e>
 80020aa:	4b2e      	ldr	r3, [pc, #184]	@ (8002164 <waitForCommand+0xc4>)
 80020ac:	781c      	ldrb	r4, [r3, #0]
 80020ae:	2c00      	cmp	r4, #0
 80020b0:	d00f      	beq.n	80020d2 <waitForCommand+0x32>
 80020b2:	2c3e      	cmp	r4, #62	@ 0x3e
 80020b4:	d832      	bhi.n	800211c <waitForCommand+0x7c>
 80020b6:	782b      	ldrb	r3, [r5, #0]
 80020b8:	2b0a      	cmp	r3, #10
 80020ba:	d010      	beq.n	80020de <waitForCommand+0x3e>
 80020bc:	2b0d      	cmp	r3, #13
 80020be:	d00e      	beq.n	80020de <waitForCommand+0x3e>
 80020c0:	2b08      	cmp	r3, #8
 80020c2:	d01c      	beq.n	80020fe <waitForCommand+0x5e>
 80020c4:	4a28      	ldr	r2, [pc, #160]	@ (8002168 <waitForCommand+0xc8>)
 80020c6:	5513      	strb	r3, [r2, r4]
 80020c8:	4b26      	ldr	r3, [pc, #152]	@ (8002164 <waitForCommand+0xc4>)
 80020ca:	3401      	adds	r4, #1
 80020cc:	701c      	strb	r4, [r3, #0]
 80020ce:	2400      	movs	r4, #0
 80020d0:	e03d      	b.n	800214e <waitForCommand+0xae>
 80020d2:	4825      	ldr	r0, [pc, #148]	@ (8002168 <waitForCommand+0xc8>)
 80020d4:	2240      	movs	r2, #64	@ 0x40
 80020d6:	2100      	movs	r1, #0
 80020d8:	f001 fe52 	bl	8003d80 <memset>
 80020dc:	e7e9      	b.n	80020b2 <waitForCommand+0x12>
 80020de:	2c00      	cmp	r4, #0
 80020e0:	d035      	beq.n	800214e <waitForCommand+0xae>
 80020e2:	4d22      	ldr	r5, [pc, #136]	@ (800216c <waitForCommand+0xcc>)
 80020e4:	4920      	ldr	r1, [pc, #128]	@ (8002168 <waitForCommand+0xc8>)
 80020e6:	0022      	movs	r2, r4
 80020e8:	0028      	movs	r0, r5
 80020ea:	f001 fe97 	bl	8003e1c <memcpy>
 80020ee:	4b20      	ldr	r3, [pc, #128]	@ (8002170 <waitForCommand+0xd0>)
 80020f0:	801c      	strh	r4, [r3, #0]
 80020f2:	2300      	movs	r3, #0
 80020f4:	552b      	strb	r3, [r5, r4]
 80020f6:	4a1b      	ldr	r2, [pc, #108]	@ (8002164 <waitForCommand+0xc4>)
 80020f8:	7013      	strb	r3, [r2, #0]
 80020fa:	2401      	movs	r4, #1
 80020fc:	e027      	b.n	800214e <waitForCommand+0xae>
 80020fe:	2c00      	cmp	r4, #0
 8002100:	d025      	beq.n	800214e <waitForCommand+0xae>
 8002102:	3c01      	subs	r4, #1
 8002104:	b2e4      	uxtb	r4, r4
 8002106:	4b17      	ldr	r3, [pc, #92]	@ (8002164 <waitForCommand+0xc4>)
 8002108:	701c      	strb	r4, [r3, #0]
 800210a:	4b17      	ldr	r3, [pc, #92]	@ (8002168 <waitForCommand+0xc8>)
 800210c:	2200      	movs	r2, #0
 800210e:	551a      	strb	r2, [r3, r4]
 8002110:	4818      	ldr	r0, [pc, #96]	@ (8002174 <waitForCommand+0xd4>)
 8002112:	2103      	movs	r1, #3
 8002114:	f7ff fa12 	bl	800153c <port_tx_msg>
 8002118:	2400      	movs	r4, #0
 800211a:	e018      	b.n	800214e <waitForCommand+0xae>
 800211c:	4816      	ldr	r0, [pc, #88]	@ (8002178 <waitForCommand+0xd8>)
 800211e:	2102      	movs	r1, #2
 8002120:	f7ff fa0c 	bl	800153c <port_tx_msg>
 8002124:	4b0f      	ldr	r3, [pc, #60]	@ (8002164 <waitForCommand+0xc4>)
 8002126:	2200      	movs	r2, #0
 8002128:	701a      	strb	r2, [r3, #0]
 800212a:	2400      	movs	r4, #0
 800212c:	e00f      	b.n	800214e <waitForCommand+0xae>
 800212e:	293e      	cmp	r1, #62	@ 0x3e
 8002130:	d80f      	bhi.n	8002152 <waitForCommand+0xb2>
 8002132:	4b0e      	ldr	r3, [pc, #56]	@ (800216c <waitForCommand+0xcc>)
 8002134:	000a      	movs	r2, r1
 8002136:	0001      	movs	r1, r0
 8002138:	001d      	movs	r5, r3
 800213a:	0018      	movs	r0, r3
 800213c:	f001 fe6e 	bl	8003e1c <memcpy>
 8002140:	4b0b      	ldr	r3, [pc, #44]	@ (8002170 <waitForCommand+0xd0>)
 8002142:	801c      	strh	r4, [r3, #0]
 8002144:	2300      	movs	r3, #0
 8002146:	552b      	strb	r3, [r5, r4]
 8002148:	4a06      	ldr	r2, [pc, #24]	@ (8002164 <waitForCommand+0xc4>)
 800214a:	7013      	strb	r3, [r2, #0]
 800214c:	2401      	movs	r4, #1
 800214e:	0020      	movs	r0, r4
 8002150:	bd70      	pop	{r4, r5, r6, pc}
 8002152:	480a      	ldr	r0, [pc, #40]	@ (800217c <waitForCommand+0xdc>)
 8002154:	2102      	movs	r1, #2
 8002156:	f7ff f9f1 	bl	800153c <port_tx_msg>
 800215a:	4b02      	ldr	r3, [pc, #8]	@ (8002164 <waitForCommand+0xc4>)
 800215c:	2200      	movs	r2, #0
 800215e:	701a      	strb	r2, [r3, #0]
 8002160:	2400      	movs	r4, #0
 8002162:	e7f4      	b.n	800214e <waitForCommand+0xae>
 8002164:	20000280 	.word	0x20000280
 8002168:	20000240 	.word	0x20000240
 800216c:	20000284 	.word	0x20000284
 8002170:	20000282 	.word	0x20000282
 8002174:	080051b4 	.word	0x080051b4
 8002178:	08004ed0 	.word	0x08004ed0
 800217c:	080051b8 	.word	0x080051b8

08002180 <process_uartmsg>:
 8002180:	b500      	push	{lr}
 8002182:	b091      	sub	sp, #68	@ 0x44
 8002184:	2240      	movs	r2, #64	@ 0x40
 8002186:	2100      	movs	r1, #0
 8002188:	4668      	mov	r0, sp
 800218a:	f001 fdf9 	bl	8003d80 <memset>
 800218e:	2140      	movs	r1, #64	@ 0x40
 8002190:	4668      	mov	r0, sp
 8002192:	f7ff f9db 	bl	800154c <deca_uart_receive>
 8002196:	2800      	cmp	r0, #0
 8002198:	dc01      	bgt.n	800219e <process_uartmsg+0x1e>
 800219a:	b011      	add	sp, #68	@ 0x44
 800219c:	bd00      	pop	{pc}
 800219e:	b281      	uxth	r1, r0
 80021a0:	4668      	mov	r0, sp
 80021a2:	f7ff ff7d 	bl	80020a0 <waitForCommand>
 80021a6:	2801      	cmp	r0, #1
 80021a8:	d1f7      	bne.n	800219a <process_uartmsg+0x1a>
 80021aa:	4b06      	ldr	r3, [pc, #24]	@ (80021c4 <process_uartmsg+0x44>)
 80021ac:	881b      	ldrh	r3, [r3, #0]
 80021ae:	3b01      	subs	r3, #1
 80021b0:	2b3f      	cmp	r3, #63	@ 0x3f
 80021b2:	d900      	bls.n	80021b6 <process_uartmsg+0x36>
 80021b4:	233f      	movs	r3, #63	@ 0x3f
 80021b6:	3301      	adds	r3, #1
 80021b8:	4803      	ldr	r0, [pc, #12]	@ (80021c8 <process_uartmsg+0x48>)
 80021ba:	2200      	movs	r2, #0
 80021bc:	54c2      	strb	r2, [r0, r3]
 80021be:	f7ff fc53 	bl	8001a68 <command_parser>
 80021c2:	e7ea      	b.n	800219a <process_uartmsg+0x1a>
 80021c4:	20000282 	.word	0x20000282
 80021c8:	20000284 	.word	0x20000284

080021cc <LockEeprom>:
 80021cc:	4b06      	ldr	r3, [pc, #24]	@ (80021e8 <LockEeprom+0x1c>)
 80021ce:	699b      	ldr	r3, [r3, #24]
 80021d0:	07db      	lsls	r3, r3, #31
 80021d2:	d4fb      	bmi.n	80021cc <LockEeprom>
 80021d4:	4b04      	ldr	r3, [pc, #16]	@ (80021e8 <LockEeprom+0x1c>)
 80021d6:	685a      	ldr	r2, [r3, #4]
 80021d8:	4904      	ldr	r1, [pc, #16]	@ (80021ec <LockEeprom+0x20>)
 80021da:	400a      	ands	r2, r1
 80021dc:	605a      	str	r2, [r3, #4]
 80021de:	685a      	ldr	r2, [r3, #4]
 80021e0:	2101      	movs	r1, #1
 80021e2:	430a      	orrs	r2, r1
 80021e4:	605a      	str	r2, [r3, #4]
 80021e6:	4770      	bx	lr
 80021e8:	40022000 	.word	0x40022000
 80021ec:	fffcffff 	.word	0xfffcffff

080021f0 <UnlockEeprom>:
 80021f0:	4b09      	ldr	r3, [pc, #36]	@ (8002218 <UnlockEeprom+0x28>)
 80021f2:	699b      	ldr	r3, [r3, #24]
 80021f4:	07db      	lsls	r3, r3, #31
 80021f6:	d4fb      	bmi.n	80021f0 <UnlockEeprom>
 80021f8:	4b07      	ldr	r3, [pc, #28]	@ (8002218 <UnlockEeprom+0x28>)
 80021fa:	685b      	ldr	r3, [r3, #4]
 80021fc:	07db      	lsls	r3, r3, #31
 80021fe:	d504      	bpl.n	800220a <UnlockEeprom+0x1a>
 8002200:	4b05      	ldr	r3, [pc, #20]	@ (8002218 <UnlockEeprom+0x28>)
 8002202:	4a06      	ldr	r2, [pc, #24]	@ (800221c <UnlockEeprom+0x2c>)
 8002204:	60da      	str	r2, [r3, #12]
 8002206:	4a06      	ldr	r2, [pc, #24]	@ (8002220 <UnlockEeprom+0x30>)
 8002208:	60da      	str	r2, [r3, #12]
 800220a:	4a03      	ldr	r2, [pc, #12]	@ (8002218 <UnlockEeprom+0x28>)
 800220c:	6851      	ldr	r1, [r2, #4]
 800220e:	23c0      	movs	r3, #192	@ 0xc0
 8002210:	029b      	lsls	r3, r3, #10
 8002212:	430b      	orrs	r3, r1
 8002214:	6053      	str	r3, [r2, #4]
 8002216:	4770      	bx	lr
 8002218:	40022000 	.word	0x40022000
 800221c:	89abcdef 	.word	0x89abcdef
 8002220:	02030405 	.word	0x02030405

08002224 <EepromProgram>:
 8002224:	6001      	str	r1, [r0, #0]
 8002226:	bf30      	wfi
 8002228:	4770      	bx	lr
	...

0800222c <CRC8_Calculate>:
 800222c:	b510      	push	{r4, lr}
 800222e:	4a09      	ldr	r2, [pc, #36]	@ (8002254 <CRC8_Calculate+0x28>)
 8002230:	6893      	ldr	r3, [r2, #8]
 8002232:	2401      	movs	r4, #1
 8002234:	4323      	orrs	r3, r4
 8002236:	6093      	str	r3, [r2, #8]
 8002238:	e004      	b.n	8002244 <CRC8_Calculate+0x18>
 800223a:	7801      	ldrb	r1, [r0, #0]
 800223c:	4a05      	ldr	r2, [pc, #20]	@ (8002254 <CRC8_Calculate+0x28>)
 800223e:	7011      	strb	r1, [r2, #0]
 8002240:	0019      	movs	r1, r3
 8002242:	3001      	adds	r0, #1
 8002244:	1e4b      	subs	r3, r1, #1
 8002246:	2900      	cmp	r1, #0
 8002248:	d1f7      	bne.n	800223a <CRC8_Calculate+0xe>
 800224a:	4b02      	ldr	r3, [pc, #8]	@ (8002254 <CRC8_Calculate+0x28>)
 800224c:	6818      	ldr	r0, [r3, #0]
 800224e:	b2c0      	uxtb	r0, r0
 8002250:	bd10      	pop	{r4, pc}
 8002252:	46c0      	nop			@ (mov r8, r8)
 8002254:	40023000 	.word	0x40023000

08002258 <save_bssConfig>:
 8002258:	b510      	push	{r4, lr}
 800225a:	b0c0      	sub	sp, #256	@ 0x100
 800225c:	0004      	movs	r4, r0
 800225e:	2298      	movs	r2, #152	@ 0x98
 8002260:	21ff      	movs	r1, #255	@ 0xff
 8002262:	a81a      	add	r0, sp, #104	@ 0x68
 8002264:	f001 fd8c 	bl	8003d80 <memset>
 8002268:	2267      	movs	r2, #103	@ 0x67
 800226a:	0021      	movs	r1, r4
 800226c:	4668      	mov	r0, sp
 800226e:	f001 fdd5 	bl	8003e1c <memcpy>
 8002272:	2167      	movs	r1, #103	@ 0x67
 8002274:	4668      	mov	r0, sp
 8002276:	f7ff ffd9 	bl	800222c <CRC8_Calculate>
 800227a:	2367      	movs	r3, #103	@ 0x67
 800227c:	466a      	mov	r2, sp
 800227e:	54d0      	strb	r0, [r2, r3]
 8002280:	b672      	cpsid	i
 8002282:	f7ff ffb5 	bl	80021f0 <UnlockEeprom>
 8002286:	2400      	movs	r4, #0
 8002288:	e007      	b.n	800229a <save_bssConfig+0x42>
 800228a:	00a0      	lsls	r0, r4, #2
 800228c:	466b      	mov	r3, sp
 800228e:	5819      	ldr	r1, [r3, r0]
 8002290:	4b05      	ldr	r3, [pc, #20]	@ (80022a8 <save_bssConfig+0x50>)
 8002292:	18c0      	adds	r0, r0, r3
 8002294:	f7ff ffc6 	bl	8002224 <EepromProgram>
 8002298:	3401      	adds	r4, #1
 800229a:	2c3f      	cmp	r4, #63	@ 0x3f
 800229c:	d9f5      	bls.n	800228a <save_bssConfig+0x32>
 800229e:	f7ff ff95 	bl	80021cc <LockEeprom>
 80022a2:	b662      	cpsie	i
 80022a4:	b040      	add	sp, #256	@ 0x100
 80022a6:	bd10      	pop	{r4, pc}
 80022a8:	08080000 	.word	0x08080000

080022ac <load_bssConfig>:
 80022ac:	b510      	push	{r4, lr}
 80022ae:	4c0b      	ldr	r4, [pc, #44]	@ (80022dc <load_bssConfig+0x30>)
 80022b0:	2167      	movs	r1, #103	@ 0x67
 80022b2:	0020      	movs	r0, r4
 80022b4:	f7ff ffba 	bl	800222c <CRC8_Calculate>
 80022b8:	2367      	movs	r3, #103	@ 0x67
 80022ba:	5ce3      	ldrb	r3, [r4, r3]
 80022bc:	4283      	cmp	r3, r0
 80022be:	d108      	bne.n	80022d2 <load_bssConfig+0x26>
 80022c0:	4c07      	ldr	r4, [pc, #28]	@ (80022e0 <load_bssConfig+0x34>)
 80022c2:	4906      	ldr	r1, [pc, #24]	@ (80022dc <load_bssConfig+0x30>)
 80022c4:	2267      	movs	r2, #103	@ 0x67
 80022c6:	0020      	movs	r0, r4
 80022c8:	f001 fda8 	bl	8003e1c <memcpy>
 80022cc:	4b05      	ldr	r3, [pc, #20]	@ (80022e4 <load_bssConfig+0x38>)
 80022ce:	601c      	str	r4, [r3, #0]
 80022d0:	bd10      	pop	{r4, pc}
 80022d2:	4805      	ldr	r0, [pc, #20]	@ (80022e8 <load_bssConfig+0x3c>)
 80022d4:	f7ff ffc0 	bl	8002258 <save_bssConfig>
 80022d8:	e7f2      	b.n	80022c0 <load_bssConfig+0x14>
 80022da:	46c0      	nop			@ (mov r8, r8)
 80022dc:	08080000 	.word	0x08080000
 80022e0:	20000300 	.word	0x20000300
 80022e4:	2000011c 	.word	0x2000011c
 80022e8:	08000100 	.word	0x08000100

080022ec <get_pbssConfig>:
 80022ec:	4b01      	ldr	r3, [pc, #4]	@ (80022f4 <get_pbssConfig+0x8>)
 80022ee:	6818      	ldr	r0, [r3, #0]
 80022f0:	4770      	bx	lr
 80022f2:	46c0      	nop			@ (mov r8, r8)
 80022f4:	2000011c 	.word	0x2000011c

080022f8 <restore_nvm_fconfig>:
 80022f8:	b510      	push	{r4, lr}
 80022fa:	4803      	ldr	r0, [pc, #12]	@ (8002308 <restore_nvm_fconfig+0x10>)
 80022fc:	f7ff ffac 	bl	8002258 <save_bssConfig>
 8002300:	f7ff ffd4 	bl	80022ac <load_bssConfig>
 8002304:	bd10      	pop	{r4, pc}
 8002306:	46c0      	nop			@ (mov r8, r8)
 8002308:	08000100 	.word	0x08000100

0800230c <dwt_writetodevice>:
 800230c:	b530      	push	{r4, r5, lr}
 800230e:	b083      	sub	sp, #12
 8002310:	2900      	cmp	r1, #0
 8002312:	d10a      	bne.n	800232a <dwt_writetodevice+0x1e>
 8002314:	3980      	subs	r1, #128	@ 0x80
 8002316:	4301      	orrs	r1, r0
 8002318:	a801      	add	r0, sp, #4
 800231a:	7001      	strb	r1, [r0, #0]
 800231c:	2001      	movs	r0, #1
 800231e:	b280      	uxth	r0, r0
 8002320:	a901      	add	r1, sp, #4
 8002322:	f7fe ffd5 	bl	80012d0 <writetospi>
 8002326:	b003      	add	sp, #12
 8002328:	bd30      	pop	{r4, r5, pc}
 800232a:	2440      	movs	r4, #64	@ 0x40
 800232c:	4264      	negs	r4, r4
 800232e:	4320      	orrs	r0, r4
 8002330:	ac01      	add	r4, sp, #4
 8002332:	7020      	strb	r0, [r4, #0]
 8002334:	297f      	cmp	r1, #127	@ 0x7f
 8002336:	d802      	bhi.n	800233e <dwt_writetodevice+0x32>
 8002338:	7061      	strb	r1, [r4, #1]
 800233a:	2002      	movs	r0, #2
 800233c:	e7ef      	b.n	800231e <dwt_writetodevice+0x12>
 800233e:	b2cd      	uxtb	r5, r1
 8002340:	ac01      	add	r4, sp, #4
 8002342:	2080      	movs	r0, #128	@ 0x80
 8002344:	4240      	negs	r0, r0
 8002346:	4328      	orrs	r0, r5
 8002348:	7060      	strb	r0, [r4, #1]
 800234a:	09c9      	lsrs	r1, r1, #7
 800234c:	70a1      	strb	r1, [r4, #2]
 800234e:	2003      	movs	r0, #3
 8002350:	e7e5      	b.n	800231e <dwt_writetodevice+0x12>

08002352 <dwt_writetxdata>:
 8002352:	b510      	push	{r4, lr}
 8002354:	000b      	movs	r3, r1
 8002356:	0011      	movs	r1, r2
 8002358:	1814      	adds	r4, r2, r0
 800235a:	2280      	movs	r2, #128	@ 0x80
 800235c:	00d2      	lsls	r2, r2, #3
 800235e:	4294      	cmp	r4, r2
 8002360:	dc05      	bgt.n	800236e <dwt_writetxdata+0x1c>
 8002362:	1e82      	subs	r2, r0, #2
 8002364:	2009      	movs	r0, #9
 8002366:	f7ff ffd1 	bl	800230c <dwt_writetodevice>
 800236a:	2000      	movs	r0, #0
 800236c:	bd10      	pop	{r4, pc}
 800236e:	2001      	movs	r0, #1
 8002370:	4240      	negs	r0, r0
 8002372:	e7fb      	b.n	800236c <dwt_writetxdata+0x1a>

08002374 <dwt_readfromdevice>:
 8002374:	b530      	push	{r4, r5, lr}
 8002376:	b083      	sub	sp, #12
 8002378:	2900      	cmp	r1, #0
 800237a:	d108      	bne.n	800238e <dwt_readfromdevice+0x1a>
 800237c:	a901      	add	r1, sp, #4
 800237e:	7008      	strb	r0, [r1, #0]
 8002380:	2001      	movs	r0, #1
 8002382:	b280      	uxth	r0, r0
 8002384:	a901      	add	r1, sp, #4
 8002386:	f7fe ffef 	bl	8001368 <readfromspi>
 800238a:	b003      	add	sp, #12
 800238c:	bd30      	pop	{r4, r5, pc}
 800238e:	2440      	movs	r4, #64	@ 0x40
 8002390:	4320      	orrs	r0, r4
 8002392:	ac01      	add	r4, sp, #4
 8002394:	7020      	strb	r0, [r4, #0]
 8002396:	297f      	cmp	r1, #127	@ 0x7f
 8002398:	d802      	bhi.n	80023a0 <dwt_readfromdevice+0x2c>
 800239a:	7061      	strb	r1, [r4, #1]
 800239c:	2002      	movs	r0, #2
 800239e:	e7f0      	b.n	8002382 <dwt_readfromdevice+0xe>
 80023a0:	b2cd      	uxtb	r5, r1
 80023a2:	ac01      	add	r4, sp, #4
 80023a4:	2080      	movs	r0, #128	@ 0x80
 80023a6:	4240      	negs	r0, r0
 80023a8:	4328      	orrs	r0, r5
 80023aa:	7060      	strb	r0, [r4, #1]
 80023ac:	09c9      	lsrs	r1, r1, #7
 80023ae:	70a1      	strb	r1, [r4, #2]
 80023b0:	2003      	movs	r0, #3
 80023b2:	e7e6      	b.n	8002382 <dwt_readfromdevice+0xe>

080023b4 <dwt_read32bitoffsetreg>:
 80023b4:	b500      	push	{lr}
 80023b6:	b083      	sub	sp, #12
 80023b8:	b289      	uxth	r1, r1
 80023ba:	b280      	uxth	r0, r0
 80023bc:	ab01      	add	r3, sp, #4
 80023be:	2204      	movs	r2, #4
 80023c0:	f7ff ffd8 	bl	8002374 <dwt_readfromdevice>
 80023c4:	2303      	movs	r3, #3
 80023c6:	2000      	movs	r0, #0
 80023c8:	e004      	b.n	80023d4 <dwt_read32bitoffsetreg+0x20>
 80023ca:	0200      	lsls	r0, r0, #8
 80023cc:	aa01      	add	r2, sp, #4
 80023ce:	5cd2      	ldrb	r2, [r2, r3]
 80023d0:	1880      	adds	r0, r0, r2
 80023d2:	3b01      	subs	r3, #1
 80023d4:	2b00      	cmp	r3, #0
 80023d6:	daf8      	bge.n	80023ca <dwt_read32bitoffsetreg+0x16>
 80023d8:	b003      	add	sp, #12
 80023da:	bd00      	pop	{pc}

080023dc <dwt_readdevid>:
 80023dc:	b510      	push	{r4, lr}
 80023de:	2100      	movs	r1, #0
 80023e0:	2000      	movs	r0, #0
 80023e2:	f7ff ffe7 	bl	80023b4 <dwt_read32bitoffsetreg>
 80023e6:	bd10      	pop	{r4, pc}

080023e8 <dwt_read16bitoffsetreg>:
 80023e8:	b500      	push	{lr}
 80023ea:	b083      	sub	sp, #12
 80023ec:	b289      	uxth	r1, r1
 80023ee:	b280      	uxth	r0, r0
 80023f0:	ab01      	add	r3, sp, #4
 80023f2:	2202      	movs	r2, #2
 80023f4:	f7ff ffbe 	bl	8002374 <dwt_readfromdevice>
 80023f8:	466b      	mov	r3, sp
 80023fa:	7958      	ldrb	r0, [r3, #5]
 80023fc:	0200      	lsls	r0, r0, #8
 80023fe:	791b      	ldrb	r3, [r3, #4]
 8002400:	18c0      	adds	r0, r0, r3
 8002402:	b280      	uxth	r0, r0
 8002404:	b003      	add	sp, #12
 8002406:	bd00      	pop	{pc}

08002408 <dwt_read8bitoffsetreg>:
 8002408:	b510      	push	{r4, lr}
 800240a:	b082      	sub	sp, #8
 800240c:	466b      	mov	r3, sp
 800240e:	1ddc      	adds	r4, r3, #7
 8002410:	b289      	uxth	r1, r1
 8002412:	b280      	uxth	r0, r0
 8002414:	0023      	movs	r3, r4
 8002416:	2201      	movs	r2, #1
 8002418:	f7ff ffac 	bl	8002374 <dwt_readfromdevice>
 800241c:	7820      	ldrb	r0, [r4, #0]
 800241e:	b002      	add	sp, #8
 8002420:	bd10      	pop	{r4, pc}

08002422 <dwt_write8bitoffsetreg>:
 8002422:	b500      	push	{lr}
 8002424:	b083      	sub	sp, #12
 8002426:	466b      	mov	r3, sp
 8002428:	3307      	adds	r3, #7
 800242a:	701a      	strb	r2, [r3, #0]
 800242c:	b289      	uxth	r1, r1
 800242e:	b280      	uxth	r0, r0
 8002430:	2201      	movs	r2, #1
 8002432:	f7ff ff6b 	bl	800230c <dwt_writetodevice>
 8002436:	b003      	add	sp, #12
 8002438:	bd00      	pop	{pc}

0800243a <dwt_write16bitoffsetreg>:
 800243a:	b500      	push	{lr}
 800243c:	b083      	sub	sp, #12
 800243e:	466b      	mov	r3, sp
 8002440:	711a      	strb	r2, [r3, #4]
 8002442:	0a12      	lsrs	r2, r2, #8
 8002444:	715a      	strb	r2, [r3, #5]
 8002446:	b289      	uxth	r1, r1
 8002448:	b280      	uxth	r0, r0
 800244a:	ab01      	add	r3, sp, #4
 800244c:	2202      	movs	r2, #2
 800244e:	f7ff ff5d 	bl	800230c <dwt_writetodevice>
 8002452:	b003      	add	sp, #12
 8002454:	bd00      	pop	{pc}

08002456 <dwt_write32bitoffsetreg>:
 8002456:	b510      	push	{r4, lr}
 8002458:	b082      	sub	sp, #8
 800245a:	2300      	movs	r3, #0
 800245c:	e003      	b.n	8002466 <dwt_write32bitoffsetreg+0x10>
 800245e:	ac01      	add	r4, sp, #4
 8002460:	54e2      	strb	r2, [r4, r3]
 8002462:	0a12      	lsrs	r2, r2, #8
 8002464:	3301      	adds	r3, #1
 8002466:	2b03      	cmp	r3, #3
 8002468:	ddf9      	ble.n	800245e <dwt_write32bitoffsetreg+0x8>
 800246a:	b289      	uxth	r1, r1
 800246c:	b280      	uxth	r0, r0
 800246e:	ab01      	add	r3, sp, #4
 8002470:	2204      	movs	r2, #4
 8002472:	f7ff ff4b 	bl	800230c <dwt_writetodevice>
 8002476:	b002      	add	sp, #8
 8002478:	bd10      	pop	{r4, pc}

0800247a <dwt_configuretxrf>:
 800247a:	b510      	push	{r4, lr}
 800247c:	0004      	movs	r4, r0
 800247e:	7802      	ldrb	r2, [r0, #0]
 8002480:	210b      	movs	r1, #11
 8002482:	202a      	movs	r0, #42	@ 0x2a
 8002484:	f7ff ffcd 	bl	8002422 <dwt_write8bitoffsetreg>
 8002488:	6862      	ldr	r2, [r4, #4]
 800248a:	2100      	movs	r1, #0
 800248c:	201e      	movs	r0, #30
 800248e:	f7ff ffe2 	bl	8002456 <dwt_write32bitoffsetreg>
 8002492:	bd10      	pop	{r4, pc}

08002494 <dwt_writetxfctrl>:
 8002494:	b510      	push	{r4, lr}
 8002496:	4b06      	ldr	r3, [pc, #24]	@ (80024b0 <dwt_writetxfctrl+0x1c>)
 8002498:	681b      	ldr	r3, [r3, #0]
 800249a:	68db      	ldr	r3, [r3, #12]
 800249c:	4318      	orrs	r0, r3
 800249e:	0589      	lsls	r1, r1, #22
 80024a0:	4308      	orrs	r0, r1
 80024a2:	03d2      	lsls	r2, r2, #15
 80024a4:	4302      	orrs	r2, r0
 80024a6:	2100      	movs	r1, #0
 80024a8:	2008      	movs	r0, #8
 80024aa:	f7ff ffd4 	bl	8002456 <dwt_write32bitoffsetreg>
 80024ae:	bd10      	pop	{r4, pc}
 80024b0:	20000010 	.word	0x20000010

080024b4 <_dwt_otpread>:
 80024b4:	b510      	push	{r4, lr}
 80024b6:	0002      	movs	r2, r0
 80024b8:	2104      	movs	r1, #4
 80024ba:	202d      	movs	r0, #45	@ 0x2d
 80024bc:	f7ff ffbd 	bl	800243a <dwt_write16bitoffsetreg>
 80024c0:	2203      	movs	r2, #3
 80024c2:	2106      	movs	r1, #6
 80024c4:	202d      	movs	r0, #45	@ 0x2d
 80024c6:	f7ff ffac 	bl	8002422 <dwt_write8bitoffsetreg>
 80024ca:	2200      	movs	r2, #0
 80024cc:	2106      	movs	r1, #6
 80024ce:	202d      	movs	r0, #45	@ 0x2d
 80024d0:	f7ff ffa7 	bl	8002422 <dwt_write8bitoffsetreg>
 80024d4:	210a      	movs	r1, #10
 80024d6:	202d      	movs	r0, #45	@ 0x2d
 80024d8:	f7ff ff6c 	bl	80023b4 <dwt_read32bitoffsetreg>
 80024dc:	bd10      	pop	{r4, pc}

080024de <_dwt_aonarrayupload>:
 80024de:	b510      	push	{r4, lr}
 80024e0:	2200      	movs	r2, #0
 80024e2:	2102      	movs	r1, #2
 80024e4:	202c      	movs	r0, #44	@ 0x2c
 80024e6:	f7ff ff9c 	bl	8002422 <dwt_write8bitoffsetreg>
 80024ea:	2202      	movs	r2, #2
 80024ec:	2102      	movs	r1, #2
 80024ee:	202c      	movs	r0, #44	@ 0x2c
 80024f0:	f7ff ff97 	bl	8002422 <dwt_write8bitoffsetreg>
 80024f4:	bd10      	pop	{r4, pc}
	...

080024f8 <dwt_configuresleep>:
 80024f8:	b510      	push	{r4, lr}
 80024fa:	000c      	movs	r4, r1
 80024fc:	4b06      	ldr	r3, [pc, #24]	@ (8002518 <dwt_configuresleep+0x20>)
 80024fe:	681b      	ldr	r3, [r3, #0]
 8002500:	8ada      	ldrh	r2, [r3, #22]
 8002502:	4302      	orrs	r2, r0
 8002504:	2100      	movs	r1, #0
 8002506:	202c      	movs	r0, #44	@ 0x2c
 8002508:	f7ff ff97 	bl	800243a <dwt_write16bitoffsetreg>
 800250c:	0022      	movs	r2, r4
 800250e:	2106      	movs	r1, #6
 8002510:	202c      	movs	r0, #44	@ 0x2c
 8002512:	f7ff ff86 	bl	8002422 <dwt_write8bitoffsetreg>
 8002516:	bd10      	pop	{r4, pc}
 8002518:	20000010 	.word	0x20000010

0800251c <dwt_entersleepaftertx>:
 800251c:	b510      	push	{r4, lr}
 800251e:	0004      	movs	r4, r0
 8002520:	2104      	movs	r1, #4
 8002522:	2036      	movs	r0, #54	@ 0x36
 8002524:	f7ff ff46 	bl	80023b4 <dwt_read32bitoffsetreg>
 8002528:	0002      	movs	r2, r0
 800252a:	2c00      	cmp	r4, #0
 800252c:	d007      	beq.n	800253e <dwt_entersleepaftertx+0x22>
 800252e:	2380      	movs	r3, #128	@ 0x80
 8002530:	011b      	lsls	r3, r3, #4
 8002532:	431a      	orrs	r2, r3
 8002534:	2104      	movs	r1, #4
 8002536:	2036      	movs	r0, #54	@ 0x36
 8002538:	f7ff ff8d 	bl	8002456 <dwt_write32bitoffsetreg>
 800253c:	bd10      	pop	{r4, pc}
 800253e:	4b01      	ldr	r3, [pc, #4]	@ (8002544 <dwt_entersleepaftertx+0x28>)
 8002540:	401a      	ands	r2, r3
 8002542:	e7f7      	b.n	8002534 <dwt_entersleepaftertx+0x18>
 8002544:	fffff7ff 	.word	0xfffff7ff

08002548 <_dwt_configlde>:
 8002548:	b510      	push	{r4, lr}
 800254a:	0004      	movs	r4, r0
 800254c:	226d      	movs	r2, #109	@ 0x6d
 800254e:	4909      	ldr	r1, [pc, #36]	@ (8002574 <_dwt_configlde+0x2c>)
 8002550:	202e      	movs	r0, #46	@ 0x2e
 8002552:	f7ff ff66 	bl	8002422 <dwt_write8bitoffsetreg>
 8002556:	2c00      	cmp	r4, #0
 8002558:	d005      	beq.n	8002566 <_dwt_configlde+0x1e>
 800255a:	4a07      	ldr	r2, [pc, #28]	@ (8002578 <_dwt_configlde+0x30>)
 800255c:	4907      	ldr	r1, [pc, #28]	@ (800257c <_dwt_configlde+0x34>)
 800255e:	202e      	movs	r0, #46	@ 0x2e
 8002560:	f7ff ff6b 	bl	800243a <dwt_write16bitoffsetreg>
 8002564:	bd10      	pop	{r4, pc}
 8002566:	4a06      	ldr	r2, [pc, #24]	@ (8002580 <_dwt_configlde+0x38>)
 8002568:	4904      	ldr	r1, [pc, #16]	@ (800257c <_dwt_configlde+0x34>)
 800256a:	202e      	movs	r0, #46	@ 0x2e
 800256c:	f7ff ff65 	bl	800243a <dwt_write16bitoffsetreg>
 8002570:	e7f8      	b.n	8002564 <_dwt_configlde+0x1c>
 8002572:	46c0      	nop			@ (mov r8, r8)
 8002574:	00000806 	.word	0x00000806
 8002578:	00000607 	.word	0x00000607
 800257c:	00001806 	.word	0x00001806
 8002580:	00001607 	.word	0x00001607

08002584 <dwt_configure>:
 8002584:	b5f8      	push	{r3, r4, r5, r6, r7, lr}
 8002586:	46ce      	mov	lr, r9
 8002588:	4647      	mov	r7, r8
 800258a:	b580      	push	{r7, lr}
 800258c:	0004      	movs	r4, r0
 800258e:	7806      	ldrb	r6, [r0, #0]
 8002590:	7942      	ldrb	r2, [r0, #5]
 8002592:	4b7f      	ldr	r3, [pc, #508]	@ (8002790 <dwt_configure+0x20c>)
 8002594:	0052      	lsls	r2, r2, #1
 8002596:	5ad7      	ldrh	r7, [r2, r3]
 8002598:	7845      	ldrb	r5, [r0, #1]
 800259a:	3d01      	subs	r5, #1
 800259c:	b2ed      	uxtb	r5, r5
 800259e:	2e04      	cmp	r6, #4
 80025a0:	d100      	bne.n	80025a4 <dwt_configure+0x20>
 80025a2:	e0d0      	b.n	8002746 <dwt_configure+0x1c2>
 80025a4:	2e07      	cmp	r6, #7
 80025a6:	d100      	bne.n	80025aa <dwt_configure+0x26>
 80025a8:	e0ca      	b.n	8002740 <dwt_configure+0x1bc>
 80025aa:	2300      	movs	r3, #0
 80025ac:	4698      	mov	r8, r3
 80025ae:	79e3      	ldrb	r3, [r4, #7]
 80025b0:	2b00      	cmp	r3, #0
 80025b2:	d000      	beq.n	80025b6 <dwt_configure+0x32>
 80025b4:	e0ca      	b.n	800274c <dwt_configure+0x1c8>
 80025b6:	4b77      	ldr	r3, [pc, #476]	@ (8002794 <dwt_configure+0x210>)
 80025b8:	681a      	ldr	r2, [r3, #0]
 80025ba:	6911      	ldr	r1, [r2, #16]
 80025bc:	2380      	movs	r3, #128	@ 0x80
 80025be:	03db      	lsls	r3, r3, #15
 80025c0:	430b      	orrs	r3, r1
 80025c2:	6113      	str	r3, [r2, #16]
 80025c4:	08ff      	lsrs	r7, r7, #3
 80025c6:	4b73      	ldr	r3, [pc, #460]	@ (8002794 <dwt_configure+0x210>)
 80025c8:	6819      	ldr	r1, [r3, #0]
 80025ca:	7a23      	ldrb	r3, [r4, #8]
 80025cc:	728b      	strb	r3, [r1, #10]
 80025ce:	690a      	ldr	r2, [r1, #16]
 80025d0:	4b71      	ldr	r3, [pc, #452]	@ (8002798 <dwt_configure+0x214>)
 80025d2:	401a      	ands	r2, r3
 80025d4:	610a      	str	r2, [r1, #16]
 80025d6:	7a23      	ldrb	r3, [r4, #8]
 80025d8:	041b      	lsls	r3, r3, #16
 80025da:	20c0      	movs	r0, #192	@ 0xc0
 80025dc:	0280      	lsls	r0, r0, #10
 80025de:	4003      	ands	r3, r0
 80025e0:	431a      	orrs	r2, r3
 80025e2:	610a      	str	r2, [r1, #16]
 80025e4:	2100      	movs	r1, #0
 80025e6:	2004      	movs	r0, #4
 80025e8:	f7ff ff35 	bl	8002456 <dwt_write32bitoffsetreg>
 80025ec:	003a      	movs	r2, r7
 80025ee:	496b      	ldr	r1, [pc, #428]	@ (800279c <dwt_configure+0x218>)
 80025f0:	202e      	movs	r0, #46	@ 0x2e
 80025f2:	f7ff ff22 	bl	800243a <dwt_write16bitoffsetreg>
 80025f6:	0028      	movs	r0, r5
 80025f8:	f7ff ffa6 	bl	8002548 <_dwt_configlde>
 80025fc:	4b68      	ldr	r3, [pc, #416]	@ (80027a0 <dwt_configure+0x21c>)
 80025fe:	5d9b      	ldrb	r3, [r3, r6]
 8002600:	4699      	mov	r9, r3
 8002602:	4b68      	ldr	r3, [pc, #416]	@ (80027a4 <dwt_configure+0x220>)
 8002604:	464a      	mov	r2, r9
 8002606:	0097      	lsls	r7, r2, #2
 8002608:	58fa      	ldr	r2, [r7, r3]
 800260a:	2107      	movs	r1, #7
 800260c:	202b      	movs	r0, #43	@ 0x2b
 800260e:	f7ff ff22 	bl	8002456 <dwt_write32bitoffsetreg>
 8002612:	4b65      	ldr	r3, [pc, #404]	@ (80027a8 <dwt_configure+0x224>)
 8002614:	464a      	mov	r2, r9
 8002616:	5c9a      	ldrb	r2, [r3, r2]
 8002618:	210b      	movs	r1, #11
 800261a:	202b      	movs	r0, #43	@ 0x2b
 800261c:	f7ff ff01 	bl	8002422 <dwt_write8bitoffsetreg>
 8002620:	4b62      	ldr	r3, [pc, #392]	@ (80027ac <dwt_configure+0x228>)
 8002622:	4642      	mov	r2, r8
 8002624:	5c9a      	ldrb	r2, [r3, r2]
 8002626:	210b      	movs	r1, #11
 8002628:	2028      	movs	r0, #40	@ 0x28
 800262a:	f7ff fefa 	bl	8002422 <dwt_write8bitoffsetreg>
 800262e:	4b60      	ldr	r3, [pc, #384]	@ (80027b0 <dwt_configure+0x22c>)
 8002630:	58fa      	ldr	r2, [r7, r3]
 8002632:	210c      	movs	r1, #12
 8002634:	2028      	movs	r0, #40	@ 0x28
 8002636:	f7ff ff0e 	bl	8002456 <dwt_write32bitoffsetreg>
 800263a:	79e3      	ldrb	r3, [r4, #7]
 800263c:	79a1      	ldrb	r1, [r4, #6]
 800263e:	4a5d      	ldr	r2, [pc, #372]	@ (80027b4 <dwt_configure+0x230>)
 8002640:	005b      	lsls	r3, r3, #1
 8002642:	185b      	adds	r3, r3, r1
 8002644:	005b      	lsls	r3, r3, #1
 8002646:	5a9a      	ldrh	r2, [r3, r2]
 8002648:	2102      	movs	r1, #2
 800264a:	2027      	movs	r0, #39	@ 0x27
 800264c:	f7ff fef5 	bl	800243a <dwt_write16bitoffsetreg>
 8002650:	4b59      	ldr	r3, [pc, #356]	@ (80027b8 <dwt_configure+0x234>)
 8002652:	006a      	lsls	r2, r5, #1
 8002654:	5ad2      	ldrh	r2, [r2, r3]
 8002656:	2104      	movs	r1, #4
 8002658:	2027      	movs	r0, #39	@ 0x27
 800265a:	f7ff feee 	bl	800243a <dwt_write16bitoffsetreg>
 800265e:	79e3      	ldrb	r3, [r4, #7]
 8002660:	2b00      	cmp	r3, #0
 8002662:	d100      	bne.n	8002666 <dwt_configure+0xe2>
 8002664:	e079      	b.n	800275a <dwt_configure+0x1d6>
 8002666:	78a3      	ldrb	r3, [r4, #2]
 8002668:	2b04      	cmp	r3, #4
 800266a:	d100      	bne.n	800266e <dwt_configure+0xea>
 800266c:	e07b      	b.n	8002766 <dwt_configure+0x1e2>
 800266e:	2220      	movs	r2, #32
 8002670:	2106      	movs	r1, #6
 8002672:	2027      	movs	r0, #39	@ 0x27
 8002674:	f7ff fee1 	bl	800243a <dwt_write16bitoffsetreg>
 8002678:	2228      	movs	r2, #40	@ 0x28
 800267a:	2126      	movs	r1, #38	@ 0x26
 800267c:	2027      	movs	r0, #39	@ 0x27
 800267e:	f7ff fed0 	bl	8002422 <dwt_write8bitoffsetreg>
 8002682:	78e1      	ldrb	r1, [r4, #3]
 8002684:	4a4d      	ldr	r2, [pc, #308]	@ (80027bc <dwt_configure+0x238>)
 8002686:	00ab      	lsls	r3, r5, #2
 8002688:	185b      	adds	r3, r3, r1
 800268a:	009b      	lsls	r3, r3, #2
 800268c:	589a      	ldr	r2, [r3, r2]
 800268e:	2108      	movs	r1, #8
 8002690:	2027      	movs	r0, #39	@ 0x27
 8002692:	f7ff fee0 	bl	8002456 <dwt_write32bitoffsetreg>
 8002696:	8963      	ldrh	r3, [r4, #10]
 8002698:	2b00      	cmp	r3, #0
 800269a:	d101      	bne.n	80026a0 <dwt_configure+0x11c>
 800269c:	4b48      	ldr	r3, [pc, #288]	@ (80027c0 <dwt_configure+0x23c>)
 800269e:	8163      	strh	r3, [r4, #10]
 80026a0:	8962      	ldrh	r2, [r4, #10]
 80026a2:	2120      	movs	r1, #32
 80026a4:	2027      	movs	r0, #39	@ 0x27
 80026a6:	f7ff fec8 	bl	800243a <dwt_write16bitoffsetreg>
 80026aa:	4f46      	ldr	r7, [pc, #280]	@ (80027c4 <dwt_configure+0x240>)
 80026ac:	683a      	ldr	r2, [r7, #0]
 80026ae:	210c      	movs	r1, #12
 80026b0:	2023      	movs	r0, #35	@ 0x23
 80026b2:	f7ff fed0 	bl	8002456 <dwt_write32bitoffsetreg>
 80026b6:	006d      	lsls	r5, r5, #1
 80026b8:	197f      	adds	r7, r7, r5
 80026ba:	88ba      	ldrh	r2, [r7, #4]
 80026bc:	2104      	movs	r1, #4
 80026be:	2023      	movs	r0, #35	@ 0x23
 80026c0:	f7ff febb 	bl	800243a <dwt_write16bitoffsetreg>
 80026c4:	79a3      	ldrb	r3, [r4, #6]
 80026c6:	2b00      	cmp	r3, #0
 80026c8:	d158      	bne.n	800277c <dwt_configure+0x1f8>
 80026ca:	0019      	movs	r1, r3
 80026cc:	220f      	movs	r2, #15
 80026ce:	4032      	ands	r2, r6
 80026d0:	0136      	lsls	r6, r6, #4
 80026d2:	20ff      	movs	r0, #255	@ 0xff
 80026d4:	4030      	ands	r0, r6
 80026d6:	4302      	orrs	r2, r0
 80026d8:	7860      	ldrb	r0, [r4, #1]
 80026da:	0480      	lsls	r0, r0, #18
 80026dc:	25c0      	movs	r5, #192	@ 0xc0
 80026de:	032d      	lsls	r5, r5, #12
 80026e0:	4028      	ands	r0, r5
 80026e2:	4302      	orrs	r2, r0
 80026e4:	051b      	lsls	r3, r3, #20
 80026e6:	20c0      	movs	r0, #192	@ 0xc0
 80026e8:	0380      	lsls	r0, r0, #14
 80026ea:	4003      	ands	r3, r0
 80026ec:	431a      	orrs	r2, r3
 80026ee:	044b      	lsls	r3, r1, #17
 80026f0:	2180      	movs	r1, #128	@ 0x80
 80026f2:	0289      	lsls	r1, r1, #10
 80026f4:	400b      	ands	r3, r1
 80026f6:	431a      	orrs	r2, r3
 80026f8:	7923      	ldrb	r3, [r4, #4]
 80026fa:	059b      	lsls	r3, r3, #22
 80026fc:	21f8      	movs	r1, #248	@ 0xf8
 80026fe:	04c9      	lsls	r1, r1, #19
 8002700:	400b      	ands	r3, r1
 8002702:	431a      	orrs	r2, r3
 8002704:	7963      	ldrb	r3, [r4, #5]
 8002706:	06db      	lsls	r3, r3, #27
 8002708:	431a      	orrs	r2, r3
 800270a:	2100      	movs	r1, #0
 800270c:	201f      	movs	r0, #31
 800270e:	f7ff fea2 	bl	8002456 <dwt_write32bitoffsetreg>
 8002712:	78a2      	ldrb	r2, [r4, #2]
 8002714:	7863      	ldrb	r3, [r4, #1]
 8002716:	431a      	orrs	r2, r3
 8002718:	0412      	lsls	r2, r2, #16
 800271a:	79e3      	ldrb	r3, [r4, #7]
 800271c:	035b      	lsls	r3, r3, #13
 800271e:	491d      	ldr	r1, [pc, #116]	@ (8002794 <dwt_configure+0x210>)
 8002720:	6809      	ldr	r1, [r1, #0]
 8002722:	431a      	orrs	r2, r3
 8002724:	60ca      	str	r2, [r1, #12]
 8002726:	2100      	movs	r1, #0
 8002728:	2008      	movs	r0, #8
 800272a:	f7ff fe94 	bl	8002456 <dwt_write32bitoffsetreg>
 800272e:	2242      	movs	r2, #66	@ 0x42
 8002730:	2100      	movs	r1, #0
 8002732:	200d      	movs	r0, #13
 8002734:	f7ff fe75 	bl	8002422 <dwt_write8bitoffsetreg>
 8002738:	bcc0      	pop	{r6, r7}
 800273a:	46b9      	mov	r9, r7
 800273c:	46b0      	mov	r8, r6
 800273e:	bdf8      	pop	{r3, r4, r5, r6, r7, pc}
 8002740:	2301      	movs	r3, #1
 8002742:	4698      	mov	r8, r3
 8002744:	e733      	b.n	80025ae <dwt_configure+0x2a>
 8002746:	2301      	movs	r3, #1
 8002748:	4698      	mov	r8, r3
 800274a:	e730      	b.n	80025ae <dwt_configure+0x2a>
 800274c:	4b11      	ldr	r3, [pc, #68]	@ (8002794 <dwt_configure+0x210>)
 800274e:	681a      	ldr	r2, [r3, #0]
 8002750:	6913      	ldr	r3, [r2, #16]
 8002752:	491d      	ldr	r1, [pc, #116]	@ (80027c8 <dwt_configure+0x244>)
 8002754:	400b      	ands	r3, r1
 8002756:	6113      	str	r3, [r2, #16]
 8002758:	e735      	b.n	80025c6 <dwt_configure+0x42>
 800275a:	2264      	movs	r2, #100	@ 0x64
 800275c:	2106      	movs	r1, #6
 800275e:	2027      	movs	r0, #39	@ 0x27
 8002760:	f7ff fe6b 	bl	800243a <dwt_write16bitoffsetreg>
 8002764:	e78d      	b.n	8002682 <dwt_configure+0xfe>
 8002766:	2210      	movs	r2, #16
 8002768:	2106      	movs	r1, #6
 800276a:	2027      	movs	r0, #39	@ 0x27
 800276c:	f7ff fe65 	bl	800243a <dwt_write16bitoffsetreg>
 8002770:	2210      	movs	r2, #16
 8002772:	2126      	movs	r1, #38	@ 0x26
 8002774:	2027      	movs	r0, #39	@ 0x27
 8002776:	f7ff fe54 	bl	8002422 <dwt_write8bitoffsetreg>
 800277a:	e782      	b.n	8002682 <dwt_configure+0xfe>
 800277c:	79e3      	ldrb	r3, [r4, #7]
 800277e:	4a13      	ldr	r2, [pc, #76]	@ (80027cc <dwt_configure+0x248>)
 8002780:	5cd2      	ldrb	r2, [r2, r3]
 8002782:	2100      	movs	r1, #0
 8002784:	2021      	movs	r0, #33	@ 0x21
 8002786:	f7ff fe4c 	bl	8002422 <dwt_write8bitoffsetreg>
 800278a:	2101      	movs	r1, #1
 800278c:	2303      	movs	r3, #3
 800278e:	e79d      	b.n	80026cc <dwt_configure+0x148>
 8002790:	08005310 	.word	0x08005310
 8002794:	20000010 	.word	0x20000010
 8002798:	fffcffff 	.word	0xfffcffff
 800279c:	00002804 	.word	0x00002804
 80027a0:	080053bc 	.word	0x080053bc
 80027a4:	0800538c 	.word	0x0800538c
 80027a8:	08005384 	.word	0x08005384
 80027ac:	08005380 	.word	0x08005380
 80027b0:	080053a4 	.word	0x080053a4
 80027b4:	08005368 	.word	0x08005368
 80027b8:	08005364 	.word	0x08005364
 80027bc:	08005344 	.word	0x08005344
 80027c0:	00001041 	.word	0x00001041
 80027c4:	08005378 	.word	0x08005378
 80027c8:	ffbfffff 	.word	0xffbfffff
 80027cc:	08005374 	.word	0x08005374

080027d0 <dwt_setsmarttxpower>:
 80027d0:	b570      	push	{r4, r5, r6, lr}
 80027d2:	0004      	movs	r4, r0
 80027d4:	4b0f      	ldr	r3, [pc, #60]	@ (8002814 <dwt_setsmarttxpower+0x44>)
 80027d6:	681d      	ldr	r5, [r3, #0]
 80027d8:	2100      	movs	r1, #0
 80027da:	2004      	movs	r0, #4
 80027dc:	f7ff fdea 	bl	80023b4 <dwt_read32bitoffsetreg>
 80027e0:	6128      	str	r0, [r5, #16]
 80027e2:	2c00      	cmp	r4, #0
 80027e4:	d00d      	beq.n	8002802 <dwt_setsmarttxpower+0x32>
 80027e6:	4b0b      	ldr	r3, [pc, #44]	@ (8002814 <dwt_setsmarttxpower+0x44>)
 80027e8:	681a      	ldr	r2, [r3, #0]
 80027ea:	6913      	ldr	r3, [r2, #16]
 80027ec:	490a      	ldr	r1, [pc, #40]	@ (8002818 <dwt_setsmarttxpower+0x48>)
 80027ee:	400b      	ands	r3, r1
 80027f0:	6113      	str	r3, [r2, #16]
 80027f2:	4b08      	ldr	r3, [pc, #32]	@ (8002814 <dwt_setsmarttxpower+0x44>)
 80027f4:	681b      	ldr	r3, [r3, #0]
 80027f6:	691a      	ldr	r2, [r3, #16]
 80027f8:	2100      	movs	r1, #0
 80027fa:	2004      	movs	r0, #4
 80027fc:	f7ff fe2b 	bl	8002456 <dwt_write32bitoffsetreg>
 8002800:	bd70      	pop	{r4, r5, r6, pc}
 8002802:	4b04      	ldr	r3, [pc, #16]	@ (8002814 <dwt_setsmarttxpower+0x44>)
 8002804:	681a      	ldr	r2, [r3, #0]
 8002806:	6911      	ldr	r1, [r2, #16]
 8002808:	2380      	movs	r3, #128	@ 0x80
 800280a:	02db      	lsls	r3, r3, #11
 800280c:	430b      	orrs	r3, r1
 800280e:	6113      	str	r3, [r2, #16]
 8002810:	e7ef      	b.n	80027f2 <dwt_setsmarttxpower+0x22>
 8002812:	46c0      	nop			@ (mov r8, r8)
 8002814:	20000010 	.word	0x20000010
 8002818:	fffbffff 	.word	0xfffbffff

0800281c <dwt_setcallbacks>:
 800281c:	b510      	push	{r4, lr}
 800281e:	4c03      	ldr	r4, [pc, #12]	@ (800282c <dwt_setcallbacks+0x10>)
 8002820:	6824      	ldr	r4, [r4, #0]
 8002822:	62a0      	str	r0, [r4, #40]	@ 0x28
 8002824:	62e1      	str	r1, [r4, #44]	@ 0x2c
 8002826:	6322      	str	r2, [r4, #48]	@ 0x30
 8002828:	6363      	str	r3, [r4, #52]	@ 0x34
 800282a:	bd10      	pop	{r4, pc}
 800282c:	20000010 	.word	0x20000010

08002830 <dwt_setleds>:
 8002830:	b570      	push	{r4, r5, r6, lr}
 8002832:	0004      	movs	r4, r0
 8002834:	07c3      	lsls	r3, r0, #31
 8002836:	d52e      	bpl.n	8002896 <dwt_setleds+0x66>
 8002838:	2100      	movs	r1, #0
 800283a:	2026      	movs	r0, #38	@ 0x26
 800283c:	f7ff fdba 	bl	80023b4 <dwt_read32bitoffsetreg>
 8002840:	4b1a      	ldr	r3, [pc, #104]	@ (80028ac <dwt_setleds+0x7c>)
 8002842:	4018      	ands	r0, r3
 8002844:	22a0      	movs	r2, #160	@ 0xa0
 8002846:	0152      	lsls	r2, r2, #5
 8002848:	4302      	orrs	r2, r0
 800284a:	2100      	movs	r1, #0
 800284c:	2026      	movs	r0, #38	@ 0x26
 800284e:	f7ff fe02 	bl	8002456 <dwt_write32bitoffsetreg>
 8002852:	2100      	movs	r1, #0
 8002854:	2036      	movs	r0, #54	@ 0x36
 8002856:	f7ff fdad 	bl	80023b4 <dwt_read32bitoffsetreg>
 800285a:	2284      	movs	r2, #132	@ 0x84
 800285c:	0412      	lsls	r2, r2, #16
 800285e:	4302      	orrs	r2, r0
 8002860:	2100      	movs	r1, #0
 8002862:	2036      	movs	r0, #54	@ 0x36
 8002864:	f7ff fdf7 	bl	8002456 <dwt_write32bitoffsetreg>
 8002868:	2302      	movs	r3, #2
 800286a:	001d      	movs	r5, r3
 800286c:	4025      	ands	r5, r4
 800286e:	4223      	tst	r3, r4
 8002870:	d10f      	bne.n	8002892 <dwt_setleds+0x62>
 8002872:	2488      	movs	r4, #136	@ 0x88
 8002874:	0064      	lsls	r4, r4, #1
 8002876:	0022      	movs	r2, r4
 8002878:	2128      	movs	r1, #40	@ 0x28
 800287a:	2036      	movs	r0, #54	@ 0x36
 800287c:	f7ff fdeb 	bl	8002456 <dwt_write32bitoffsetreg>
 8002880:	2d00      	cmp	r5, #0
 8002882:	d012      	beq.n	80028aa <dwt_setleds+0x7a>
 8002884:	4a0a      	ldr	r2, [pc, #40]	@ (80028b0 <dwt_setleds+0x80>)
 8002886:	4022      	ands	r2, r4
 8002888:	2128      	movs	r1, #40	@ 0x28
 800288a:	2036      	movs	r0, #54	@ 0x36
 800288c:	f7ff fde3 	bl	8002456 <dwt_write32bitoffsetreg>
 8002890:	e00b      	b.n	80028aa <dwt_setleds+0x7a>
 8002892:	4c08      	ldr	r4, [pc, #32]	@ (80028b4 <dwt_setleds+0x84>)
 8002894:	e7ef      	b.n	8002876 <dwt_setleds+0x46>
 8002896:	2100      	movs	r1, #0
 8002898:	2026      	movs	r0, #38	@ 0x26
 800289a:	f7ff fd8b 	bl	80023b4 <dwt_read32bitoffsetreg>
 800289e:	4a03      	ldr	r2, [pc, #12]	@ (80028ac <dwt_setleds+0x7c>)
 80028a0:	4002      	ands	r2, r0
 80028a2:	2100      	movs	r1, #0
 80028a4:	2026      	movs	r0, #38	@ 0x26
 80028a6:	f7ff fdd6 	bl	8002456 <dwt_write32bitoffsetreg>
 80028aa:	bd70      	pop	{r4, r5, r6, pc}
 80028ac:	ffffc3ff 	.word	0xffffc3ff
 80028b0:	fff0ffff 	.word	0xfff0ffff
 80028b4:	000f0110 	.word	0x000f0110

080028b8 <_dwt_enableclocks>:
 80028b8:	b510      	push	{r4, lr}
 80028ba:	b082      	sub	sp, #8
 80028bc:	0004      	movs	r4, r0
 80028be:	ab01      	add	r3, sp, #4
 80028c0:	2202      	movs	r2, #2
 80028c2:	2100      	movs	r1, #0
 80028c4:	2036      	movs	r0, #54	@ 0x36
 80028c6:	f7ff fd55 	bl	8002374 <dwt_readfromdevice>
 80028ca:	2c0e      	cmp	r4, #14
 80028cc:	d80a      	bhi.n	80028e4 <_dwt_enableclocks+0x2c>
 80028ce:	00a4      	lsls	r4, r4, #2
 80028d0:	4b2c      	ldr	r3, [pc, #176]	@ (8002984 <_dwt_enableclocks+0xcc>)
 80028d2:	591b      	ldr	r3, [r3, r4]
 80028d4:	469f      	mov	pc, r3
 80028d6:	ab01      	add	r3, sp, #4
 80028d8:	2200      	movs	r2, #0
 80028da:	701a      	strb	r2, [r3, #0]
 80028dc:	785a      	ldrb	r2, [r3, #1]
 80028de:	2101      	movs	r1, #1
 80028e0:	438a      	bics	r2, r1
 80028e2:	705a      	strb	r2, [r3, #1]
 80028e4:	ab01      	add	r3, sp, #4
 80028e6:	2201      	movs	r2, #1
 80028e8:	2100      	movs	r1, #0
 80028ea:	2036      	movs	r0, #54	@ 0x36
 80028ec:	f7ff fd0e 	bl	800230c <dwt_writetodevice>
 80028f0:	466b      	mov	r3, sp
 80028f2:	3305      	adds	r3, #5
 80028f4:	2201      	movs	r2, #1
 80028f6:	2101      	movs	r1, #1
 80028f8:	2036      	movs	r0, #54	@ 0x36
 80028fa:	f7ff fd07 	bl	800230c <dwt_writetodevice>
 80028fe:	b002      	add	sp, #8
 8002900:	bd10      	pop	{r4, pc}
 8002902:	aa01      	add	r2, sp, #4
 8002904:	7813      	ldrb	r3, [r2, #0]
 8002906:	2103      	movs	r1, #3
 8002908:	438b      	bics	r3, r1
 800290a:	2101      	movs	r1, #1
 800290c:	430b      	orrs	r3, r1
 800290e:	7013      	strb	r3, [r2, #0]
 8002910:	e7e8      	b.n	80028e4 <_dwt_enableclocks+0x2c>
 8002912:	aa01      	add	r2, sp, #4
 8002914:	7813      	ldrb	r3, [r2, #0]
 8002916:	2103      	movs	r1, #3
 8002918:	438b      	bics	r3, r1
 800291a:	2102      	movs	r1, #2
 800291c:	430b      	orrs	r3, r1
 800291e:	7013      	strb	r3, [r2, #0]
 8002920:	e7e0      	b.n	80028e4 <_dwt_enableclocks+0x2c>
 8002922:	aa01      	add	r2, sp, #4
 8002924:	7813      	ldrb	r3, [r2, #0]
 8002926:	214c      	movs	r1, #76	@ 0x4c
 8002928:	438b      	bics	r3, r1
 800292a:	2148      	movs	r1, #72	@ 0x48
 800292c:	430b      	orrs	r3, r1
 800292e:	7013      	strb	r3, [r2, #0]
 8002930:	7851      	ldrb	r1, [r2, #1]
 8002932:	2380      	movs	r3, #128	@ 0x80
 8002934:	425b      	negs	r3, r3
 8002936:	430b      	orrs	r3, r1
 8002938:	7053      	strb	r3, [r2, #1]
 800293a:	e7d3      	b.n	80028e4 <_dwt_enableclocks+0x2c>
 800293c:	ab01      	add	r3, sp, #4
 800293e:	781a      	ldrb	r2, [r3, #0]
 8002940:	214c      	movs	r1, #76	@ 0x4c
 8002942:	438a      	bics	r2, r1
 8002944:	701a      	strb	r2, [r3, #0]
 8002946:	7859      	ldrb	r1, [r3, #1]
 8002948:	227f      	movs	r2, #127	@ 0x7f
 800294a:	400a      	ands	r2, r1
 800294c:	705a      	strb	r2, [r3, #1]
 800294e:	e7c9      	b.n	80028e4 <_dwt_enableclocks+0x2c>
 8002950:	aa01      	add	r2, sp, #4
 8002952:	7853      	ldrb	r3, [r2, #1]
 8002954:	2102      	movs	r1, #2
 8002956:	430b      	orrs	r3, r1
 8002958:	7053      	strb	r3, [r2, #1]
 800295a:	e7c3      	b.n	80028e4 <_dwt_enableclocks+0x2c>
 800295c:	aa01      	add	r2, sp, #4
 800295e:	7853      	ldrb	r3, [r2, #1]
 8002960:	2102      	movs	r1, #2
 8002962:	438b      	bics	r3, r1
 8002964:	7053      	strb	r3, [r2, #1]
 8002966:	e7bd      	b.n	80028e4 <_dwt_enableclocks+0x2c>
 8002968:	aa01      	add	r2, sp, #4
 800296a:	7813      	ldrb	r3, [r2, #0]
 800296c:	2130      	movs	r1, #48	@ 0x30
 800296e:	438b      	bics	r3, r1
 8002970:	2120      	movs	r1, #32
 8002972:	430b      	orrs	r3, r1
 8002974:	7013      	strb	r3, [r2, #0]
 8002976:	e7b5      	b.n	80028e4 <_dwt_enableclocks+0x2c>
 8002978:	ab01      	add	r3, sp, #4
 800297a:	2201      	movs	r2, #1
 800297c:	701a      	strb	r2, [r3, #0]
 800297e:	3202      	adds	r2, #2
 8002980:	705a      	strb	r2, [r3, #1]
 8002982:	e7af      	b.n	80028e4 <_dwt_enableclocks+0x2c>
 8002984:	080052d4 	.word	0x080052d4

08002988 <dwt_otpread>:
 8002988:	b5f0      	push	{r4, r5, r6, r7, lr}
 800298a:	46c6      	mov	lr, r8
 800298c:	b500      	push	{lr}
 800298e:	4680      	mov	r8, r0
 8002990:	000f      	movs	r7, r1
 8002992:	0016      	movs	r6, r2
 8002994:	2000      	movs	r0, #0
 8002996:	f7ff ff8f 	bl	80028b8 <_dwt_enableclocks>
 800299a:	2400      	movs	r4, #0
 800299c:	e008      	b.n	80029b0 <dwt_otpread+0x28>
 800299e:	00a5      	lsls	r5, r4, #2
 80029a0:	197d      	adds	r5, r7, r5
 80029a2:	4643      	mov	r3, r8
 80029a4:	1918      	adds	r0, r3, r4
 80029a6:	b280      	uxth	r0, r0
 80029a8:	f7ff fd84 	bl	80024b4 <_dwt_otpread>
 80029ac:	6028      	str	r0, [r5, #0]
 80029ae:	3401      	adds	r4, #1
 80029b0:	42a6      	cmp	r6, r4
 80029b2:	dcf4      	bgt.n	800299e <dwt_otpread+0x16>
 80029b4:	2001      	movs	r0, #1
 80029b6:	f7ff ff7f 	bl	80028b8 <_dwt_enableclocks>
 80029ba:	bc80      	pop	{r7}
 80029bc:	46b8      	mov	r8, r7
 80029be:	bdf0      	pop	{r4, r5, r6, r7, pc}

080029c0 <_dwt_loaducodefromrom>:
 80029c0:	b510      	push	{r4, lr}
 80029c2:	200e      	movs	r0, #14
 80029c4:	f7ff ff78 	bl	80028b8 <_dwt_enableclocks>
 80029c8:	2280      	movs	r2, #128	@ 0x80
 80029ca:	0212      	lsls	r2, r2, #8
 80029cc:	2106      	movs	r1, #6
 80029ce:	202d      	movs	r0, #45	@ 0x2d
 80029d0:	f7ff fd33 	bl	800243a <dwt_write16bitoffsetreg>
 80029d4:	2001      	movs	r0, #1
 80029d6:	f7fe fc6f 	bl	80012b8 <deca_sleep>
 80029da:	2001      	movs	r0, #1
 80029dc:	f7ff ff6c 	bl	80028b8 <_dwt_enableclocks>
 80029e0:	bd10      	pop	{r4, pc}

080029e2 <_dwt_disablesequencing>:
 80029e2:	b510      	push	{r4, lr}
 80029e4:	2000      	movs	r0, #0
 80029e6:	f7ff ff67 	bl	80028b8 <_dwt_enableclocks>
 80029ea:	2200      	movs	r2, #0
 80029ec:	2104      	movs	r1, #4
 80029ee:	2036      	movs	r0, #54	@ 0x36
 80029f0:	f7ff fd23 	bl	800243a <dwt_write16bitoffsetreg>
 80029f4:	bd10      	pop	{r4, pc}
	...

080029f8 <dwt_starttx>:
 80029f8:	b510      	push	{r4, lr}
 80029fa:	2302      	movs	r3, #2
 80029fc:	001a      	movs	r2, r3
 80029fe:	4002      	ands	r2, r0
 8002a00:	4203      	tst	r3, r0
 8002a02:	d004      	beq.n	8002a0e <dwt_starttx+0x16>
 8002a04:	4b14      	ldr	r3, [pc, #80]	@ (8002a58 <dwt_starttx+0x60>)
 8002a06:	681b      	ldr	r3, [r3, #0]
 8002a08:	2201      	movs	r2, #1
 8002a0a:	755a      	strb	r2, [r3, #21]
 8002a0c:	327f      	adds	r2, #127	@ 0x7f
 8002a0e:	07c0      	lsls	r0, r0, #31
 8002a10:	d518      	bpl.n	8002a44 <dwt_starttx+0x4c>
 8002a12:	2306      	movs	r3, #6
 8002a14:	431a      	orrs	r2, r3
 8002a16:	b2d2      	uxtb	r2, r2
 8002a18:	2100      	movs	r1, #0
 8002a1a:	200d      	movs	r0, #13
 8002a1c:	f7ff fd01 	bl	8002422 <dwt_write8bitoffsetreg>
 8002a20:	2103      	movs	r1, #3
 8002a22:	200f      	movs	r0, #15
 8002a24:	f7ff fce0 	bl	80023e8 <dwt_read16bitoffsetreg>
 8002a28:	2381      	movs	r3, #129	@ 0x81
 8002a2a:	00db      	lsls	r3, r3, #3
 8002a2c:	4218      	tst	r0, r3
 8002a2e:	d101      	bne.n	8002a34 <dwt_starttx+0x3c>
 8002a30:	2000      	movs	r0, #0
 8002a32:	e00f      	b.n	8002a54 <dwt_starttx+0x5c>
 8002a34:	2240      	movs	r2, #64	@ 0x40
 8002a36:	2100      	movs	r1, #0
 8002a38:	200d      	movs	r0, #13
 8002a3a:	f7ff fcf2 	bl	8002422 <dwt_write8bitoffsetreg>
 8002a3e:	2001      	movs	r0, #1
 8002a40:	4240      	negs	r0, r0
 8002a42:	e007      	b.n	8002a54 <dwt_starttx+0x5c>
 8002a44:	2302      	movs	r3, #2
 8002a46:	431a      	orrs	r2, r3
 8002a48:	b2d2      	uxtb	r2, r2
 8002a4a:	2100      	movs	r1, #0
 8002a4c:	200d      	movs	r0, #13
 8002a4e:	f7ff fce8 	bl	8002422 <dwt_write8bitoffsetreg>
 8002a52:	2000      	movs	r0, #0
 8002a54:	bd10      	pop	{r4, pc}
 8002a56:	46c0      	nop			@ (mov r8, r8)
 8002a58:	20000010 	.word	0x20000010

08002a5c <dwt_syncrxbufptrs>:
 8002a5c:	b510      	push	{r4, lr}
 8002a5e:	2103      	movs	r1, #3
 8002a60:	200f      	movs	r0, #15
 8002a62:	f7ff fcd1 	bl	8002408 <dwt_read8bitoffsetreg>
 8002a66:	0043      	lsls	r3, r0, #1
 8002a68:	4058      	eors	r0, r3
 8002a6a:	0600      	lsls	r0, r0, #24
 8002a6c:	d400      	bmi.n	8002a70 <dwt_syncrxbufptrs+0x14>
 8002a6e:	bd10      	pop	{r4, pc}
 8002a70:	2201      	movs	r2, #1
 8002a72:	2103      	movs	r1, #3
 8002a74:	200d      	movs	r0, #13
 8002a76:	f7ff fcd4 	bl	8002422 <dwt_write8bitoffsetreg>
 8002a7a:	e7f8      	b.n	8002a6e <dwt_syncrxbufptrs+0x12>

08002a7c <dwt_forcetrxoff>:
 8002a7c:	b570      	push	{r4, r5, r6, lr}
 8002a7e:	2100      	movs	r1, #0
 8002a80:	200e      	movs	r0, #14
 8002a82:	f7ff fc97 	bl	80023b4 <dwt_read32bitoffsetreg>
 8002a86:	0005      	movs	r5, r0
 8002a88:	f7fe fdd6 	bl	8001638 <decamutexon>
 8002a8c:	0004      	movs	r4, r0
 8002a8e:	2200      	movs	r2, #0
 8002a90:	2100      	movs	r1, #0
 8002a92:	200e      	movs	r0, #14
 8002a94:	f7ff fcdf 	bl	8002456 <dwt_write32bitoffsetreg>
 8002a98:	2240      	movs	r2, #64	@ 0x40
 8002a9a:	2100      	movs	r1, #0
 8002a9c:	200d      	movs	r0, #13
 8002a9e:	f7ff fcc0 	bl	8002422 <dwt_write8bitoffsetreg>
 8002aa2:	4a0a      	ldr	r2, [pc, #40]	@ (8002acc <dwt_forcetrxoff+0x50>)
 8002aa4:	2100      	movs	r1, #0
 8002aa6:	200f      	movs	r0, #15
 8002aa8:	f7ff fcd5 	bl	8002456 <dwt_write32bitoffsetreg>
 8002aac:	f7ff ffd6 	bl	8002a5c <dwt_syncrxbufptrs>
 8002ab0:	002a      	movs	r2, r5
 8002ab2:	2100      	movs	r1, #0
 8002ab4:	200e      	movs	r0, #14
 8002ab6:	f7ff fcce 	bl	8002456 <dwt_write32bitoffsetreg>
 8002aba:	0020      	movs	r0, r4
 8002abc:	f7fe fdbe 	bl	800163c <decamutexoff>
 8002ac0:	4b03      	ldr	r3, [pc, #12]	@ (8002ad0 <dwt_forcetrxoff+0x54>)
 8002ac2:	681b      	ldr	r3, [r3, #0]
 8002ac4:	2200      	movs	r2, #0
 8002ac6:	755a      	strb	r2, [r3, #21]
 8002ac8:	bd70      	pop	{r4, r5, r6, pc}
 8002aca:	46c0      	nop			@ (mov r8, r8)
 8002acc:	2427fff8 	.word	0x2427fff8
 8002ad0:	20000010 	.word	0x20000010

08002ad4 <dwt_rxreset>:
 8002ad4:	b510      	push	{r4, lr}
 8002ad6:	22e0      	movs	r2, #224	@ 0xe0
 8002ad8:	2103      	movs	r1, #3
 8002ada:	2036      	movs	r0, #54	@ 0x36
 8002adc:	f7ff fca1 	bl	8002422 <dwt_write8bitoffsetreg>
 8002ae0:	22f0      	movs	r2, #240	@ 0xf0
 8002ae2:	2103      	movs	r1, #3
 8002ae4:	2036      	movs	r0, #54	@ 0x36
 8002ae6:	f7ff fc9c 	bl	8002422 <dwt_write8bitoffsetreg>
 8002aea:	bd10      	pop	{r4, pc}

08002aec <dwt_isr>:
 8002aec:	b570      	push	{r4, r5, r6, lr}
 8002aee:	4b53      	ldr	r3, [pc, #332]	@ (8002c3c <dwt_isr+0x150>)
 8002af0:	681d      	ldr	r5, [r3, #0]
 8002af2:	2100      	movs	r1, #0
 8002af4:	200f      	movs	r0, #15
 8002af6:	f7ff fc5d 	bl	80023b4 <dwt_read32bitoffsetreg>
 8002afa:	0004      	movs	r4, r0
 8002afc:	61e8      	str	r0, [r5, #28]
 8002afe:	0443      	lsls	r3, r0, #17
 8002b00:	d40a      	bmi.n	8002b18 <dwt_isr+0x2c>
 8002b02:	0623      	lsls	r3, r4, #24
 8002b04:	d455      	bmi.n	8002bb2 <dwt_isr+0xc6>
 8002b06:	2388      	movs	r3, #136	@ 0x88
 8002b08:	039b      	lsls	r3, r3, #14
 8002b0a:	421c      	tst	r4, r3
 8002b0c:	d16a      	bne.n	8002be4 <dwt_isr+0xf8>
 8002b0e:	4b4c      	ldr	r3, [pc, #304]	@ (8002c40 <dwt_isr+0x154>)
 8002b10:	421c      	tst	r4, r3
 8002b12:	d000      	beq.n	8002b16 <dwt_isr+0x2a>
 8002b14:	e07c      	b.n	8002c10 <dwt_isr+0x124>
 8002b16:	bd70      	pop	{r4, r5, r6, pc}
 8002b18:	22de      	movs	r2, #222	@ 0xde
 8002b1a:	01d2      	lsls	r2, r2, #7
 8002b1c:	2100      	movs	r1, #0
 8002b1e:	200f      	movs	r0, #15
 8002b20:	f7ff fc99 	bl	8002456 <dwt_write32bitoffsetreg>
 8002b24:	4d45      	ldr	r5, [pc, #276]	@ (8002c3c <dwt_isr+0x150>)
 8002b26:	682a      	ldr	r2, [r5, #0]
 8002b28:	2324      	movs	r3, #36	@ 0x24
 8002b2a:	2100      	movs	r1, #0
 8002b2c:	54d1      	strb	r1, [r2, r3]
 8002b2e:	2010      	movs	r0, #16
 8002b30:	f7ff fc5a 	bl	80023e8 <dwt_read16bitoffsetreg>
 8002b34:	0582      	lsls	r2, r0, #22
 8002b36:	0d92      	lsrs	r2, r2, #22
 8002b38:	682b      	ldr	r3, [r5, #0]
 8002b3a:	7a99      	ldrb	r1, [r3, #10]
 8002b3c:	2900      	cmp	r1, #0
 8002b3e:	d101      	bne.n	8002b44 <dwt_isr+0x58>
 8002b40:	227f      	movs	r2, #127	@ 0x7f
 8002b42:	4002      	ands	r2, r0
 8002b44:	841a      	strh	r2, [r3, #32]
 8002b46:	0400      	lsls	r0, r0, #16
 8002b48:	d41f      	bmi.n	8002b8a <dwt_isr+0x9e>
 8002b4a:	3322      	adds	r3, #34	@ 0x22
 8002b4c:	2202      	movs	r2, #2
 8002b4e:	2100      	movs	r1, #0
 8002b50:	2011      	movs	r0, #17
 8002b52:	f7ff fc0f 	bl	8002374 <dwt_readfromdevice>
 8002b56:	0723      	lsls	r3, r4, #28
 8002b58:	d505      	bpl.n	8002b66 <dwt_isr+0x7a>
 8002b5a:	4b38      	ldr	r3, [pc, #224]	@ (8002c3c <dwt_isr+0x150>)
 8002b5c:	681a      	ldr	r2, [r3, #0]
 8002b5e:	2322      	movs	r3, #34	@ 0x22
 8002b60:	5cd3      	ldrb	r3, [r2, r3]
 8002b62:	069b      	lsls	r3, r3, #26
 8002b64:	d517      	bpl.n	8002b96 <dwt_isr+0xaa>
 8002b66:	4b35      	ldr	r3, [pc, #212]	@ (8002c3c <dwt_isr+0x150>)
 8002b68:	6818      	ldr	r0, [r3, #0]
 8002b6a:	6ac3      	ldr	r3, [r0, #44]	@ 0x2c
 8002b6c:	2b00      	cmp	r3, #0
 8002b6e:	d001      	beq.n	8002b74 <dwt_isr+0x88>
 8002b70:	301c      	adds	r0, #28
 8002b72:	4798      	blx	r3
 8002b74:	4b31      	ldr	r3, [pc, #196]	@ (8002c3c <dwt_isr+0x150>)
 8002b76:	681b      	ldr	r3, [r3, #0]
 8002b78:	7d1b      	ldrb	r3, [r3, #20]
 8002b7a:	2b00      	cmp	r3, #0
 8002b7c:	d0c1      	beq.n	8002b02 <dwt_isr+0x16>
 8002b7e:	2201      	movs	r2, #1
 8002b80:	2103      	movs	r1, #3
 8002b82:	200d      	movs	r0, #13
 8002b84:	f7ff fc4d 	bl	8002422 <dwt_write8bitoffsetreg>
 8002b88:	e7bb      	b.n	8002b02 <dwt_isr+0x16>
 8002b8a:	2124      	movs	r1, #36	@ 0x24
 8002b8c:	5c5a      	ldrb	r2, [r3, r1]
 8002b8e:	2001      	movs	r0, #1
 8002b90:	4302      	orrs	r2, r0
 8002b92:	545a      	strb	r2, [r3, r1]
 8002b94:	e7d9      	b.n	8002b4a <dwt_isr+0x5e>
 8002b96:	2208      	movs	r2, #8
 8002b98:	2100      	movs	r1, #0
 8002b9a:	200f      	movs	r0, #15
 8002b9c:	f7ff fc5b 	bl	8002456 <dwt_write32bitoffsetreg>
 8002ba0:	4b26      	ldr	r3, [pc, #152]	@ (8002c3c <dwt_isr+0x150>)
 8002ba2:	681b      	ldr	r3, [r3, #0]
 8002ba4:	69da      	ldr	r2, [r3, #28]
 8002ba6:	2108      	movs	r1, #8
 8002ba8:	438a      	bics	r2, r1
 8002baa:	61da      	str	r2, [r3, #28]
 8002bac:	2200      	movs	r2, #0
 8002bae:	755a      	strb	r2, [r3, #21]
 8002bb0:	e7d9      	b.n	8002b66 <dwt_isr+0x7a>
 8002bb2:	22f8      	movs	r2, #248	@ 0xf8
 8002bb4:	2100      	movs	r1, #0
 8002bb6:	200f      	movs	r0, #15
 8002bb8:	f7ff fc4d 	bl	8002456 <dwt_write32bitoffsetreg>
 8002bbc:	0723      	lsls	r3, r4, #28
 8002bbe:	d504      	bpl.n	8002bca <dwt_isr+0xde>
 8002bc0:	4b1e      	ldr	r3, [pc, #120]	@ (8002c3c <dwt_isr+0x150>)
 8002bc2:	681b      	ldr	r3, [r3, #0]
 8002bc4:	7d5b      	ldrb	r3, [r3, #21]
 8002bc6:	2b00      	cmp	r3, #0
 8002bc8:	d107      	bne.n	8002bda <dwt_isr+0xee>
 8002bca:	4b1c      	ldr	r3, [pc, #112]	@ (8002c3c <dwt_isr+0x150>)
 8002bcc:	6818      	ldr	r0, [r3, #0]
 8002bce:	6a83      	ldr	r3, [r0, #40]	@ 0x28
 8002bd0:	2b00      	cmp	r3, #0
 8002bd2:	d098      	beq.n	8002b06 <dwt_isr+0x1a>
 8002bd4:	301c      	adds	r0, #28
 8002bd6:	4798      	blx	r3
 8002bd8:	e795      	b.n	8002b06 <dwt_isr+0x1a>
 8002bda:	f7ff ff4f 	bl	8002a7c <dwt_forcetrxoff>
 8002bde:	f7ff ff79 	bl	8002ad4 <dwt_rxreset>
 8002be2:	e7f2      	b.n	8002bca <dwt_isr+0xde>
 8002be4:	2280      	movs	r2, #128	@ 0x80
 8002be6:	0292      	lsls	r2, r2, #10
 8002be8:	2100      	movs	r1, #0
 8002bea:	200f      	movs	r0, #15
 8002bec:	f7ff fc33 	bl	8002456 <dwt_write32bitoffsetreg>
 8002bf0:	4d12      	ldr	r5, [pc, #72]	@ (8002c3c <dwt_isr+0x150>)
 8002bf2:	682b      	ldr	r3, [r5, #0]
 8002bf4:	2200      	movs	r2, #0
 8002bf6:	755a      	strb	r2, [r3, #21]
 8002bf8:	f7ff ff40 	bl	8002a7c <dwt_forcetrxoff>
 8002bfc:	f7ff ff6a 	bl	8002ad4 <dwt_rxreset>
 8002c00:	6828      	ldr	r0, [r5, #0]
 8002c02:	6b03      	ldr	r3, [r0, #48]	@ 0x30
 8002c04:	2b00      	cmp	r3, #0
 8002c06:	d100      	bne.n	8002c0a <dwt_isr+0x11e>
 8002c08:	e781      	b.n	8002b0e <dwt_isr+0x22>
 8002c0a:	301c      	adds	r0, #28
 8002c0c:	4798      	blx	r3
 8002c0e:	e77e      	b.n	8002b0e <dwt_isr+0x22>
 8002c10:	001a      	movs	r2, r3
 8002c12:	2100      	movs	r1, #0
 8002c14:	200f      	movs	r0, #15
 8002c16:	f7ff fc1e 	bl	8002456 <dwt_write32bitoffsetreg>
 8002c1a:	4c08      	ldr	r4, [pc, #32]	@ (8002c3c <dwt_isr+0x150>)
 8002c1c:	6823      	ldr	r3, [r4, #0]
 8002c1e:	2200      	movs	r2, #0
 8002c20:	755a      	strb	r2, [r3, #21]
 8002c22:	f7ff ff2b 	bl	8002a7c <dwt_forcetrxoff>
 8002c26:	f7ff ff55 	bl	8002ad4 <dwt_rxreset>
 8002c2a:	6820      	ldr	r0, [r4, #0]
 8002c2c:	6b43      	ldr	r3, [r0, #52]	@ 0x34
 8002c2e:	2b00      	cmp	r3, #0
 8002c30:	d100      	bne.n	8002c34 <dwt_isr+0x148>
 8002c32:	e770      	b.n	8002b16 <dwt_isr+0x2a>
 8002c34:	301c      	adds	r0, #28
 8002c36:	4798      	blx	r3
 8002c38:	e76d      	b.n	8002b16 <dwt_isr+0x2a>
 8002c3a:	46c0      	nop			@ (mov r8, r8)
 8002c3c:	20000010 	.word	0x20000010
 8002c40:	24059000 	.word	0x24059000

08002c44 <dwt_softreset>:
 8002c44:	b510      	push	{r4, lr}
 8002c46:	f7ff fecc 	bl	80029e2 <_dwt_disablesequencing>
 8002c4a:	2200      	movs	r2, #0
 8002c4c:	2100      	movs	r1, #0
 8002c4e:	202c      	movs	r0, #44	@ 0x2c
 8002c50:	f7ff fbf3 	bl	800243a <dwt_write16bitoffsetreg>
 8002c54:	2200      	movs	r2, #0
 8002c56:	2106      	movs	r1, #6
 8002c58:	202c      	movs	r0, #44	@ 0x2c
 8002c5a:	f7ff fbe2 	bl	8002422 <dwt_write8bitoffsetreg>
 8002c5e:	f7ff fc3e 	bl	80024de <_dwt_aonarrayupload>
 8002c62:	2200      	movs	r2, #0
 8002c64:	2103      	movs	r1, #3
 8002c66:	2036      	movs	r0, #54	@ 0x36
 8002c68:	f7ff fbdb 	bl	8002422 <dwt_write8bitoffsetreg>
 8002c6c:	22f0      	movs	r2, #240	@ 0xf0
 8002c6e:	2103      	movs	r1, #3
 8002c70:	2036      	movs	r0, #54	@ 0x36
 8002c72:	f7ff fbd6 	bl	8002422 <dwt_write8bitoffsetreg>
 8002c76:	4b02      	ldr	r3, [pc, #8]	@ (8002c80 <dwt_softreset+0x3c>)
 8002c78:	681b      	ldr	r3, [r3, #0]
 8002c7a:	2200      	movs	r2, #0
 8002c7c:	755a      	strb	r2, [r3, #21]
 8002c7e:	bd10      	pop	{r4, pc}
 8002c80:	20000010 	.word	0x20000010

08002c84 <dwt_setxtaltrim>:
 8002c84:	b510      	push	{r4, lr}
 8002c86:	221f      	movs	r2, #31
 8002c88:	4002      	ands	r2, r0
 8002c8a:	2360      	movs	r3, #96	@ 0x60
 8002c8c:	431a      	orrs	r2, r3
 8002c8e:	b2d2      	uxtb	r2, r2
 8002c90:	210e      	movs	r1, #14
 8002c92:	202b      	movs	r0, #43	@ 0x2b
 8002c94:	f7ff fbc5 	bl	8002422 <dwt_write8bitoffsetreg>
 8002c98:	bd10      	pop	{r4, pc}
	...

08002c9c <dwt_initialise>:
 8002c9c:	b570      	push	{r4, r5, r6, lr}
 8002c9e:	0004      	movs	r4, r0
 8002ca0:	4b6c      	ldr	r3, [pc, #432]	@ (8002e54 <dwt_initialise+0x1b8>)
 8002ca2:	681b      	ldr	r3, [r3, #0]
 8002ca4:	2200      	movs	r2, #0
 8002ca6:	751a      	strb	r2, [r3, #20]
 8002ca8:	755a      	strb	r2, [r3, #21]
 8002caa:	82da      	strh	r2, [r3, #22]
 8002cac:	629a      	str	r2, [r3, #40]	@ 0x28
 8002cae:	62da      	str	r2, [r3, #44]	@ 0x2c
 8002cb0:	631a      	str	r2, [r3, #48]	@ 0x30
 8002cb2:	635a      	str	r2, [r3, #52]	@ 0x34
 8002cb4:	f7ff fb92 	bl	80023dc <dwt_readdevid>
 8002cb8:	4b67      	ldr	r3, [pc, #412]	@ (8002e58 <dwt_initialise+0x1bc>)
 8002cba:	4298      	cmp	r0, r3
 8002cbc:	d000      	beq.n	8002cc0 <dwt_initialise+0x24>
 8002cbe:	e0c6      	b.n	8002e4e <dwt_initialise+0x1b2>
 8002cc0:	2302      	movs	r3, #2
 8002cc2:	001d      	movs	r5, r3
 8002cc4:	4025      	ands	r5, r4
 8002cc6:	4223      	tst	r3, r4
 8002cc8:	d020      	beq.n	8002d0c <dwt_initialise+0x70>
 8002cca:	2d00      	cmp	r5, #0
 8002ccc:	d002      	beq.n	8002cd4 <dwt_initialise+0x38>
 8002cce:	23f8      	movs	r3, #248	@ 0xf8
 8002cd0:	4223      	tst	r3, r4
 8002cd2:	d102      	bne.n	8002cda <dwt_initialise+0x3e>
 8002cd4:	2000      	movs	r0, #0
 8002cd6:	f7ff fdef 	bl	80028b8 <_dwt_enableclocks>
 8002cda:	2204      	movs	r2, #4
 8002cdc:	2100      	movs	r1, #0
 8002cde:	2024      	movs	r0, #36	@ 0x24
 8002ce0:	f7ff fb9f 	bl	8002422 <dwt_write8bitoffsetreg>
 8002ce4:	2d00      	cmp	r5, #0
 8002ce6:	d121      	bne.n	8002d2c <dwt_initialise+0x90>
 8002ce8:	2004      	movs	r0, #4
 8002cea:	f7ff fbe3 	bl	80024b4 <_dwt_otpread>
 8002cee:	23ff      	movs	r3, #255	@ 0xff
 8002cf0:	4203      	tst	r3, r0
 8002cf2:	d10e      	bne.n	8002d12 <dwt_initialise+0x76>
 8002cf4:	2d00      	cmp	r5, #0
 8002cf6:	d028      	beq.n	8002d4a <dwt_initialise+0xae>
 8002cf8:	230a      	movs	r3, #10
 8002cfa:	4023      	ands	r3, r4
 8002cfc:	2b0a      	cmp	r3, #10
 8002cfe:	d024      	beq.n	8002d4a <dwt_initialise+0xae>
 8002d00:	4b54      	ldr	r3, [pc, #336]	@ (8002e54 <dwt_initialise+0x1b8>)
 8002d02:	681b      	ldr	r3, [r3, #0]
 8002d04:	2200      	movs	r2, #0
 8002d06:	72da      	strb	r2, [r3, #11]
 8002d08:	2000      	movs	r0, #0
 8002d0a:	e026      	b.n	8002d5a <dwt_initialise+0xbe>
 8002d0c:	f7ff ff9a 	bl	8002c44 <dwt_softreset>
 8002d10:	e7db      	b.n	8002cca <dwt_initialise+0x2e>
 8002d12:	2202      	movs	r2, #2
 8002d14:	2112      	movs	r1, #18
 8002d16:	202d      	movs	r0, #45	@ 0x2d
 8002d18:	f7ff fb83 	bl	8002422 <dwt_write8bitoffsetreg>
 8002d1c:	4b4d      	ldr	r3, [pc, #308]	@ (8002e54 <dwt_initialise+0x1b8>)
 8002d1e:	681a      	ldr	r2, [r3, #0]
 8002d20:	8ad1      	ldrh	r1, [r2, #22]
 8002d22:	2380      	movs	r3, #128	@ 0x80
 8002d24:	015b      	lsls	r3, r3, #5
 8002d26:	430b      	orrs	r3, r1
 8002d28:	82d3      	strh	r3, [r2, #22]
 8002d2a:	e7e3      	b.n	8002cf4 <dwt_initialise+0x58>
 8002d2c:	2130      	movs	r1, #48	@ 0x30
 8002d2e:	2028      	movs	r0, #40	@ 0x28
 8002d30:	f7ff fb40 	bl	80023b4 <dwt_read32bitoffsetreg>
 8002d34:	4b49      	ldr	r3, [pc, #292]	@ (8002e5c <dwt_initialise+0x1c0>)
 8002d36:	4298      	cmp	r0, r3
 8002d38:	d0dc      	beq.n	8002cf4 <dwt_initialise+0x58>
 8002d3a:	4b46      	ldr	r3, [pc, #280]	@ (8002e54 <dwt_initialise+0x1b8>)
 8002d3c:	681a      	ldr	r2, [r3, #0]
 8002d3e:	8ad1      	ldrh	r1, [r2, #22]
 8002d40:	2380      	movs	r3, #128	@ 0x80
 8002d42:	015b      	lsls	r3, r3, #5
 8002d44:	430b      	orrs	r3, r1
 8002d46:	82d3      	strh	r3, [r2, #22]
 8002d48:	e7d4      	b.n	8002cf4 <dwt_initialise+0x58>
 8002d4a:	201e      	movs	r0, #30
 8002d4c:	f7ff fbb2 	bl	80024b4 <_dwt_otpread>
 8002d50:	b280      	uxth	r0, r0
 8002d52:	4b40      	ldr	r3, [pc, #256]	@ (8002e54 <dwt_initialise+0x1b8>)
 8002d54:	681b      	ldr	r3, [r3, #0]
 8002d56:	0a02      	lsrs	r2, r0, #8
 8002d58:	72da      	strb	r2, [r3, #11]
 8002d5a:	2d00      	cmp	r5, #0
 8002d5c:	d105      	bne.n	8002d6a <dwt_initialise+0xce>
 8002d5e:	06c3      	lsls	r3, r0, #27
 8002d60:	d100      	bne.n	8002d64 <dwt_initialise+0xc8>
 8002d62:	2010      	movs	r0, #16
 8002d64:	b2c0      	uxtb	r0, r0
 8002d66:	f7ff ff8d 	bl	8002c84 <dwt_setxtaltrim>
 8002d6a:	06e3      	lsls	r3, r4, #27
 8002d6c:	d43d      	bmi.n	8002dea <dwt_initialise+0x14e>
 8002d6e:	4b39      	ldr	r3, [pc, #228]	@ (8002e54 <dwt_initialise+0x1b8>)
 8002d70:	681b      	ldr	r3, [r3, #0]
 8002d72:	2200      	movs	r2, #0
 8002d74:	601a      	str	r2, [r3, #0]
 8002d76:	06a3      	lsls	r3, r4, #26
 8002d78:	d43e      	bmi.n	8002df8 <dwt_initialise+0x15c>
 8002d7a:	4b36      	ldr	r3, [pc, #216]	@ (8002e54 <dwt_initialise+0x1b8>)
 8002d7c:	681b      	ldr	r3, [r3, #0]
 8002d7e:	2200      	movs	r2, #0
 8002d80:	605a      	str	r2, [r3, #4]
 8002d82:	0663      	lsls	r3, r4, #25
 8002d84:	d43f      	bmi.n	8002e06 <dwt_initialise+0x16a>
 8002d86:	4b33      	ldr	r3, [pc, #204]	@ (8002e54 <dwt_initialise+0x1b8>)
 8002d88:	681b      	ldr	r3, [r3, #0]
 8002d8a:	2200      	movs	r2, #0
 8002d8c:	721a      	strb	r2, [r3, #8]
 8002d8e:	0623      	lsls	r3, r4, #24
 8002d90:	d440      	bmi.n	8002e14 <dwt_initialise+0x178>
 8002d92:	4b30      	ldr	r3, [pc, #192]	@ (8002e54 <dwt_initialise+0x1b8>)
 8002d94:	681b      	ldr	r3, [r3, #0]
 8002d96:	2200      	movs	r2, #0
 8002d98:	725a      	strb	r2, [r3, #9]
 8002d9a:	2d00      	cmp	r5, #0
 8002d9c:	d14d      	bne.n	8002e3a <dwt_initialise+0x19e>
 8002d9e:	07e4      	lsls	r4, r4, #31
 8002da0:	d53f      	bpl.n	8002e22 <dwt_initialise+0x186>
 8002da2:	f7ff fe0d 	bl	80029c0 <_dwt_loaducodefromrom>
 8002da6:	4b2b      	ldr	r3, [pc, #172]	@ (8002e54 <dwt_initialise+0x1b8>)
 8002da8:	681a      	ldr	r2, [r3, #0]
 8002daa:	8ad1      	ldrh	r1, [r2, #22]
 8002dac:	2380      	movs	r3, #128	@ 0x80
 8002dae:	011b      	lsls	r3, r3, #4
 8002db0:	430b      	orrs	r3, r1
 8002db2:	82d3      	strh	r3, [r2, #22]
 8002db4:	2001      	movs	r0, #1
 8002db6:	f7ff fd7f 	bl	80028b8 <_dwt_enableclocks>
 8002dba:	2200      	movs	r2, #0
 8002dbc:	210a      	movs	r1, #10
 8002dbe:	202c      	movs	r0, #44	@ 0x2c
 8002dc0:	f7ff fb2f 	bl	8002422 <dwt_write8bitoffsetreg>
 8002dc4:	4c23      	ldr	r4, [pc, #140]	@ (8002e54 <dwt_initialise+0x1b8>)
 8002dc6:	6825      	ldr	r5, [r4, #0]
 8002dc8:	2100      	movs	r1, #0
 8002dca:	2004      	movs	r0, #4
 8002dcc:	f7ff faf2 	bl	80023b4 <dwt_read32bitoffsetreg>
 8002dd0:	6128      	str	r0, [r5, #16]
 8002dd2:	6824      	ldr	r4, [r4, #0]
 8002dd4:	8a62      	ldrh	r2, [r4, #18]
 8002dd6:	2303      	movs	r3, #3
 8002dd8:	4013      	ands	r3, r2
 8002dda:	72a3      	strb	r3, [r4, #10]
 8002ddc:	2100      	movs	r1, #0
 8002dde:	2008      	movs	r0, #8
 8002de0:	f7ff fae8 	bl	80023b4 <dwt_read32bitoffsetreg>
 8002de4:	60e0      	str	r0, [r4, #12]
 8002de6:	2000      	movs	r0, #0
 8002de8:	bd70      	pop	{r4, r5, r6, pc}
 8002dea:	4b1a      	ldr	r3, [pc, #104]	@ (8002e54 <dwt_initialise+0x1b8>)
 8002dec:	681e      	ldr	r6, [r3, #0]
 8002dee:	2006      	movs	r0, #6
 8002df0:	f7ff fb60 	bl	80024b4 <_dwt_otpread>
 8002df4:	6030      	str	r0, [r6, #0]
 8002df6:	e7be      	b.n	8002d76 <dwt_initialise+0xda>
 8002df8:	4b16      	ldr	r3, [pc, #88]	@ (8002e54 <dwt_initialise+0x1b8>)
 8002dfa:	681e      	ldr	r6, [r3, #0]
 8002dfc:	2007      	movs	r0, #7
 8002dfe:	f7ff fb59 	bl	80024b4 <_dwt_otpread>
 8002e02:	6070      	str	r0, [r6, #4]
 8002e04:	e7bd      	b.n	8002d82 <dwt_initialise+0xe6>
 8002e06:	2008      	movs	r0, #8
 8002e08:	f7ff fb54 	bl	80024b4 <_dwt_otpread>
 8002e0c:	4b11      	ldr	r3, [pc, #68]	@ (8002e54 <dwt_initialise+0x1b8>)
 8002e0e:	681b      	ldr	r3, [r3, #0]
 8002e10:	7218      	strb	r0, [r3, #8]
 8002e12:	e7bc      	b.n	8002d8e <dwt_initialise+0xf2>
 8002e14:	2009      	movs	r0, #9
 8002e16:	f7ff fb4d 	bl	80024b4 <_dwt_otpread>
 8002e1a:	4b0e      	ldr	r3, [pc, #56]	@ (8002e54 <dwt_initialise+0x1b8>)
 8002e1c:	681b      	ldr	r3, [r3, #0]
 8002e1e:	7258      	strb	r0, [r3, #9]
 8002e20:	e7bb      	b.n	8002d9a <dwt_initialise+0xfe>
 8002e22:	2105      	movs	r1, #5
 8002e24:	2036      	movs	r0, #54	@ 0x36
 8002e26:	f7ff fadf 	bl	80023e8 <dwt_read16bitoffsetreg>
 8002e2a:	4b0d      	ldr	r3, [pc, #52]	@ (8002e60 <dwt_initialise+0x1c4>)
 8002e2c:	4018      	ands	r0, r3
 8002e2e:	b282      	uxth	r2, r0
 8002e30:	2105      	movs	r1, #5
 8002e32:	2036      	movs	r0, #54	@ 0x36
 8002e34:	f7ff fb01 	bl	800243a <dwt_write16bitoffsetreg>
 8002e38:	e7bc      	b.n	8002db4 <dwt_initialise+0x118>
 8002e3a:	0764      	lsls	r4, r4, #29
 8002e3c:	d4ba      	bmi.n	8002db4 <dwt_initialise+0x118>
 8002e3e:	4b05      	ldr	r3, [pc, #20]	@ (8002e54 <dwt_initialise+0x1b8>)
 8002e40:	681a      	ldr	r2, [r3, #0]
 8002e42:	8ad1      	ldrh	r1, [r2, #22]
 8002e44:	2380      	movs	r3, #128	@ 0x80
 8002e46:	011b      	lsls	r3, r3, #4
 8002e48:	430b      	orrs	r3, r1
 8002e4a:	82d3      	strh	r3, [r2, #22]
 8002e4c:	e7b2      	b.n	8002db4 <dwt_initialise+0x118>
 8002e4e:	2001      	movs	r0, #1
 8002e50:	4240      	negs	r0, r0
 8002e52:	e7c9      	b.n	8002de8 <dwt_initialise+0x14c>
 8002e54:	20000010 	.word	0x20000010
 8002e58:	deca0130 	.word	0xdeca0130
 8002e5c:	88888888 	.word	0x88888888
 8002e60:	fffffdff 	.word	0xfffffdff

08002e64 <instance_txcallback>:
 8002e64:	4770      	bx	lr

08002e66 <instance_rxgood>:
 8002e66:	4770      	bx	lr

08002e68 <instance_rxtimeout>:
 8002e68:	4770      	bx	lr

08002e6a <instance_rxerror>:
 8002e6a:	4770      	bx	lr

08002e6c <instance_init>:
 8002e6c:	b570      	push	{r4, r5, r6, lr}
 8002e6e:	0006      	movs	r6, r0
 8002e70:	f7ff fa3c 	bl	80022ec <get_pbssConfig>
 8002e74:	0005      	movs	r5, r0
 8002e76:	4b25      	ldr	r3, [pc, #148]	@ (8002f0c <instance_init+0xa0>)
 8002e78:	2200      	movs	r2, #0
 8002e7a:	601a      	str	r2, [r3, #0]
 8002e7c:	f7ff fee2 	bl	8002c44 <dwt_softreset>
 8002e80:	2010      	movs	r0, #16
 8002e82:	f7ff ff0b 	bl	8002c9c <dwt_initialise>
 8002e86:	0004      	movs	r4, r0
 8002e88:	2e00      	cmp	r6, #0
 8002e8a:	d030      	beq.n	8002eee <instance_init+0x82>
 8002e8c:	2094      	movs	r0, #148	@ 0x94
 8002e8e:	2105      	movs	r1, #5
 8002e90:	0100      	lsls	r0, r0, #4
 8002e92:	f7ff fb31 	bl	80024f8 <dwt_configuresleep>
 8002e96:	2003      	movs	r0, #3
 8002e98:	f7ff fcca 	bl	8002830 <dwt_setleds>
 8002e9c:	7e2a      	ldrb	r2, [r5, #24]
 8002e9e:	7e68      	ldrb	r0, [r5, #25]
 8002ea0:	0200      	lsls	r0, r0, #8
 8002ea2:	4310      	orrs	r0, r2
 8002ea4:	1e43      	subs	r3, r0, #1
 8002ea6:	4198      	sbcs	r0, r3
 8002ea8:	f7ff fc92 	bl	80027d0 <dwt_setsmarttxpower>
 8002eac:	4b18      	ldr	r3, [pc, #96]	@ (8002f10 <instance_init+0xa4>)
 8002eae:	685b      	ldr	r3, [r3, #4]
 8002eb0:	2b00      	cmp	r3, #0
 8002eb2:	d108      	bne.n	8002ec6 <instance_init+0x5a>
 8002eb4:	4b16      	ldr	r3, [pc, #88]	@ (8002f10 <instance_init+0xa4>)
 8002eb6:	689a      	ldr	r2, [r3, #8]
 8002eb8:	4b16      	ldr	r3, [pc, #88]	@ (8002f14 <instance_init+0xa8>)
 8002eba:	421a      	tst	r2, r3
 8002ebc:	d103      	bne.n	8002ec6 <instance_init+0x5a>
 8002ebe:	4b14      	ldr	r3, [pc, #80]	@ (8002f10 <instance_init+0xa4>)
 8002ec0:	781b      	ldrb	r3, [r3, #0]
 8002ec2:	2b00      	cmp	r3, #0
 8002ec4:	d019      	beq.n	8002efa <instance_init+0x8e>
 8002ec6:	2001      	movs	r0, #1
 8002ec8:	f7ff fb28 	bl	800251c <dwt_entersleepaftertx>
 8002ecc:	2c00      	cmp	r4, #0
 8002ece:	d119      	bne.n	8002f04 <instance_init+0x98>
 8002ed0:	4b11      	ldr	r3, [pc, #68]	@ (8002f18 <instance_init+0xac>)
 8002ed2:	4a12      	ldr	r2, [pc, #72]	@ (8002f1c <instance_init+0xb0>)
 8002ed4:	4912      	ldr	r1, [pc, #72]	@ (8002f20 <instance_init+0xb4>)
 8002ed6:	4813      	ldr	r0, [pc, #76]	@ (8002f24 <instance_init+0xb8>)
 8002ed8:	f7ff fca0 	bl	800281c <dwt_setcallbacks>
 8002edc:	4b0b      	ldr	r3, [pc, #44]	@ (8002f0c <instance_init+0xa0>)
 8002ede:	2200      	movs	r2, #0
 8002ee0:	759a      	strb	r2, [r3, #22]
 8002ee2:	769a      	strb	r2, [r3, #26]
 8002ee4:	75da      	strb	r2, [r3, #23]
 8002ee6:	761a      	strb	r2, [r3, #24]
 8002ee8:	765a      	strb	r2, [r3, #25]
 8002eea:	0020      	movs	r0, r4
 8002eec:	bd70      	pop	{r4, r5, r6, pc}
 8002eee:	2094      	movs	r0, #148	@ 0x94
 8002ef0:	2104      	movs	r1, #4
 8002ef2:	0100      	lsls	r0, r0, #4
 8002ef4:	f7ff fb00 	bl	80024f8 <dwt_configuresleep>
 8002ef8:	e7cd      	b.n	8002e96 <instance_init+0x2a>
 8002efa:	7829      	ldrb	r1, [r5, #0]
 8002efc:	4804      	ldr	r0, [pc, #16]	@ (8002f10 <instance_init+0xa4>)
 8002efe:	f000 fdc3 	bl	8003a88 <tvc_otp_read_txcfgref>
 8002f02:	e7e0      	b.n	8002ec6 <instance_init+0x5a>
 8002f04:	2401      	movs	r4, #1
 8002f06:	4264      	negs	r4, r4
 8002f08:	e7ef      	b.n	8002eea <instance_init+0x7e>
 8002f0a:	46c0      	nop			@ (mov r8, r8)
 8002f0c:	200003a0 	.word	0x200003a0
 8002f10:	200003c4 	.word	0x200003c4
 8002f14:	ffff00ff 	.word	0xffff00ff
 8002f18:	08002e6b 	.word	0x08002e6b
 8002f1c:	08002e69 	.word	0x08002e69
 8002f20:	08002e67 	.word	0x08002e67
 8002f24:	08002e65 	.word	0x08002e65

08002f28 <instance_config>:
 8002f28:	b510      	push	{r4, lr}
 8002f2a:	b082      	sub	sp, #8
 8002f2c:	0004      	movs	r4, r0
 8002f2e:	f7ff fb29 	bl	8002584 <dwt_configure>
 8002f32:	4b0c      	ldr	r3, [pc, #48]	@ (8002f64 <instance_config+0x3c>)
 8002f34:	781a      	ldrb	r2, [r3, #0]
 8002f36:	4669      	mov	r1, sp
 8002f38:	700a      	strb	r2, [r1, #0]
 8002f3a:	6859      	ldr	r1, [r3, #4]
 8002f3c:	9101      	str	r1, [sp, #4]
 8002f3e:	7e22      	ldrb	r2, [r4, #24]
 8002f40:	7e63      	ldrb	r3, [r4, #25]
 8002f42:	021b      	lsls	r3, r3, #8
 8002f44:	4313      	orrs	r3, r2
 8002f46:	d107      	bne.n	8002f58 <instance_config+0x30>
 8002f48:	22ff      	movs	r2, #255	@ 0xff
 8002f4a:	400a      	ands	r2, r1
 8002f4c:	0211      	lsls	r1, r2, #8
 8002f4e:	188b      	adds	r3, r1, r2
 8002f50:	041b      	lsls	r3, r3, #16
 8002f52:	185b      	adds	r3, r3, r1
 8002f54:	189b      	adds	r3, r3, r2
 8002f56:	9301      	str	r3, [sp, #4]
 8002f58:	4668      	mov	r0, sp
 8002f5a:	f7ff fa8e 	bl	800247a <dwt_configuretxrf>
 8002f5e:	b002      	add	sp, #8
 8002f60:	bd10      	pop	{r4, pc}
 8002f62:	46c0      	nop			@ (mov r8, r8)
 8002f64:	200003c4 	.word	0x200003c4

08002f68 <lis3dh_i2c_read>:
 8002f68:	b530      	push	{r4, r5, lr}
 8002f6a:	b083      	sub	sp, #12
 8002f6c:	0004      	movs	r4, r0
 8002f6e:	000d      	movs	r5, r1
 8002f70:	2800      	cmp	r0, #0
 8002f72:	d019      	beq.n	8002fa8 <lis3dh_i2c_read+0x40>
 8002f74:	2a00      	cmp	r2, #0
 8002f76:	d019      	beq.n	8002fac <lis3dh_i2c_read+0x44>
 8002f78:	2b01      	cmp	r3, #1
 8002f7a:	d903      	bls.n	8002f84 <lis3dh_i2c_read+0x1c>
 8002f7c:	2180      	movs	r1, #128	@ 0x80
 8002f7e:	4249      	negs	r1, r1
 8002f80:	430d      	orrs	r5, r1
 8002f82:	b2ed      	uxtb	r5, r5
 8002f84:	7961      	ldrb	r1, [r4, #5]
 8002f86:	7920      	ldrb	r0, [r4, #4]
 8002f88:	9300      	str	r3, [sp, #0]
 8002f8a:	0013      	movs	r3, r2
 8002f8c:	002a      	movs	r2, r5
 8002f8e:	f7fe fbcd 	bl	800172c <i2c_slave_read>
 8002f92:	2800      	cmp	r0, #0
 8002f94:	d102      	bne.n	8002f9c <lis3dh_i2c_read+0x34>
 8002f96:	2001      	movs	r0, #1
 8002f98:	b003      	add	sp, #12
 8002f9a:	bd30      	pop	{r4, r5, pc}
 8002f9c:	6823      	ldr	r3, [r4, #0]
 8002f9e:	2201      	movs	r2, #1
 8002fa0:	4313      	orrs	r3, r2
 8002fa2:	6023      	str	r3, [r4, #0]
 8002fa4:	2000      	movs	r0, #0
 8002fa6:	e7f7      	b.n	8002f98 <lis3dh_i2c_read+0x30>
 8002fa8:	2000      	movs	r0, #0
 8002faa:	e7f5      	b.n	8002f98 <lis3dh_i2c_read+0x30>
 8002fac:	2000      	movs	r0, #0
 8002fae:	e7f3      	b.n	8002f98 <lis3dh_i2c_read+0x30>

08002fb0 <lis3dh_spi_read>:
 8002fb0:	b5f0      	push	{r4, r5, r6, r7, lr}
 8002fb2:	46ce      	mov	lr, r9
 8002fb4:	4647      	mov	r7, r8
 8002fb6:	b580      	push	{r7, lr}
 8002fb8:	b083      	sub	sp, #12
 8002fba:	0006      	movs	r6, r0
 8002fbc:	0015      	movs	r5, r2
 8002fbe:	001c      	movs	r4, r3
 8002fc0:	2800      	cmp	r0, #0
 8002fc2:	d03b      	beq.n	800303c <lis3dh_spi_read+0x8c>
 8002fc4:	2a00      	cmp	r2, #0
 8002fc6:	d03b      	beq.n	8003040 <lis3dh_spi_read+0x90>
 8002fc8:	2b3f      	cmp	r3, #63	@ 0x3f
 8002fca:	d909      	bls.n	8002fe0 <lis3dh_spi_read+0x30>
 8002fcc:	6803      	ldr	r3, [r0, #0]
 8002fce:	2206      	movs	r2, #6
 8002fd0:	4313      	orrs	r3, r2
 8002fd2:	6003      	str	r3, [r0, #0]
 8002fd4:	2000      	movs	r0, #0
 8002fd6:	b003      	add	sp, #12
 8002fd8:	bcc0      	pop	{r6, r7}
 8002fda:	46b9      	mov	r9, r7
 8002fdc:	46b0      	mov	r8, r6
 8002fde:	bdf0      	pop	{r4, r5, r6, r7, pc}
 8002fe0:	2340      	movs	r3, #64	@ 0x40
 8002fe2:	425b      	negs	r3, r3
 8002fe4:	430b      	orrs	r3, r1
 8002fe6:	b2db      	uxtb	r3, r3
 8002fe8:	4698      	mov	r8, r3
 8002fea:	4f16      	ldr	r7, [pc, #88]	@ (8003044 <lis3dh_spi_read+0x94>)
 8002fec:	2240      	movs	r2, #64	@ 0x40
 8002fee:	21ff      	movs	r1, #255	@ 0xff
 8002ff0:	0038      	movs	r0, r7
 8002ff2:	f000 fec5 	bl	8003d80 <memset>
 8002ff6:	4b14      	ldr	r3, [pc, #80]	@ (8003048 <lis3dh_spi_read+0x98>)
 8002ff8:	2240      	movs	r2, #64	@ 0x40
 8002ffa:	21ff      	movs	r1, #255	@ 0xff
 8002ffc:	4699      	mov	r9, r3
 8002ffe:	0018      	movs	r0, r3
 8003000:	f000 febe 	bl	8003d80 <memset>
 8003004:	4643      	mov	r3, r8
 8003006:	703b      	strb	r3, [r7, #0]
 8003008:	79b1      	ldrb	r1, [r6, #6]
 800300a:	7930      	ldrb	r0, [r6, #4]
 800300c:	1c63      	adds	r3, r4, #1
 800300e:	b29b      	uxth	r3, r3
 8003010:	9300      	str	r3, [sp, #0]
 8003012:	464b      	mov	r3, r9
 8003014:	003a      	movs	r2, r7
 8003016:	f7fe fb87 	bl	8001728 <spi_transfer_pf>
 800301a:	2800      	cmp	r0, #0
 800301c:	d001      	beq.n	8003022 <lis3dh_spi_read+0x72>
 800301e:	2100      	movs	r1, #0
 8003020:	e009      	b.n	8003036 <lis3dh_spi_read+0x86>
 8003022:	6833      	ldr	r3, [r6, #0]
 8003024:	2205      	movs	r2, #5
 8003026:	4313      	orrs	r3, r2
 8003028:	6033      	str	r3, [r6, #0]
 800302a:	e7d4      	b.n	8002fd6 <lis3dh_spi_read+0x26>
 800302c:	1c4b      	adds	r3, r1, #1
 800302e:	4a06      	ldr	r2, [pc, #24]	@ (8003048 <lis3dh_spi_read+0x98>)
 8003030:	5cd2      	ldrb	r2, [r2, r3]
 8003032:	546a      	strb	r2, [r5, r1]
 8003034:	0019      	movs	r1, r3
 8003036:	428c      	cmp	r4, r1
 8003038:	dcf8      	bgt.n	800302c <lis3dh_spi_read+0x7c>
 800303a:	e7cc      	b.n	8002fd6 <lis3dh_spi_read+0x26>
 800303c:	2000      	movs	r0, #0
 800303e:	e7ca      	b.n	8002fd6 <lis3dh_spi_read+0x26>
 8003040:	2000      	movs	r0, #0
 8003042:	e7c8      	b.n	8002fd6 <lis3dh_spi_read+0x26>
 8003044:	20000454 	.word	0x20000454
 8003048:	20000414 	.word	0x20000414

0800304c <lis3dh_spi_write>:
 800304c:	b570      	push	{r4, r5, r6, lr}
 800304e:	b082      	sub	sp, #8
 8003050:	0006      	movs	r6, r0
 8003052:	0008      	movs	r0, r1
 8003054:	2e00      	cmp	r6, #0
 8003056:	d02b      	beq.n	80030b0 <lis3dh_spi_write+0x64>
 8003058:	2a00      	cmp	r2, #0
 800305a:	d02b      	beq.n	80030b4 <lis3dh_spi_write+0x68>
 800305c:	213f      	movs	r1, #63	@ 0x3f
 800305e:	4001      	ands	r1, r0
 8003060:	2040      	movs	r0, #64	@ 0x40
 8003062:	4301      	orrs	r1, r0
 8003064:	b2c9      	uxtb	r1, r1
 8003066:	2b3f      	cmp	r3, #63	@ 0x3f
 8003068:	d803      	bhi.n	8003072 <lis3dh_spi_write+0x26>
 800306a:	4813      	ldr	r0, [pc, #76]	@ (80030b8 <lis3dh_spi_write+0x6c>)
 800306c:	7001      	strb	r1, [r0, #0]
 800306e:	2100      	movs	r1, #0
 8003070:	e00a      	b.n	8003088 <lis3dh_spi_write+0x3c>
 8003072:	6833      	ldr	r3, [r6, #0]
 8003074:	2206      	movs	r2, #6
 8003076:	4313      	orrs	r3, r2
 8003078:	6033      	str	r3, [r6, #0]
 800307a:	2000      	movs	r0, #0
 800307c:	e011      	b.n	80030a2 <lis3dh_spi_write+0x56>
 800307e:	1854      	adds	r4, r2, r1
 8003080:	3101      	adds	r1, #1
 8003082:	7825      	ldrb	r5, [r4, #0]
 8003084:	4c0c      	ldr	r4, [pc, #48]	@ (80030b8 <lis3dh_spi_write+0x6c>)
 8003086:	5465      	strb	r5, [r4, r1]
 8003088:	428b      	cmp	r3, r1
 800308a:	dcf8      	bgt.n	800307e <lis3dh_spi_write+0x32>
 800308c:	4a0a      	ldr	r2, [pc, #40]	@ (80030b8 <lis3dh_spi_write+0x6c>)
 800308e:	79b1      	ldrb	r1, [r6, #6]
 8003090:	7930      	ldrb	r0, [r6, #4]
 8003092:	3301      	adds	r3, #1
 8003094:	b29b      	uxth	r3, r3
 8003096:	9300      	str	r3, [sp, #0]
 8003098:	2300      	movs	r3, #0
 800309a:	f7fe fb45 	bl	8001728 <spi_transfer_pf>
 800309e:	2800      	cmp	r0, #0
 80030a0:	d001      	beq.n	80030a6 <lis3dh_spi_write+0x5a>
 80030a2:	b002      	add	sp, #8
 80030a4:	bd70      	pop	{r4, r5, r6, pc}
 80030a6:	6833      	ldr	r3, [r6, #0]
 80030a8:	2204      	movs	r2, #4
 80030aa:	4313      	orrs	r3, r2
 80030ac:	6033      	str	r3, [r6, #0]
 80030ae:	e7f8      	b.n	80030a2 <lis3dh_spi_write+0x56>
 80030b0:	2000      	movs	r0, #0
 80030b2:	e7f6      	b.n	80030a2 <lis3dh_spi_write+0x56>
 80030b4:	2000      	movs	r0, #0
 80030b6:	e7f4      	b.n	80030a2 <lis3dh_spi_write+0x56>
 80030b8:	200003d4 	.word	0x200003d4

080030bc <lis3dh_i2c_write>:
 80030bc:	b530      	push	{r4, r5, lr}
 80030be:	b083      	sub	sp, #12
 80030c0:	0004      	movs	r4, r0
 80030c2:	000d      	movs	r5, r1
 80030c4:	2800      	cmp	r0, #0
 80030c6:	d019      	beq.n	80030fc <lis3dh_i2c_write+0x40>
 80030c8:	2a00      	cmp	r2, #0
 80030ca:	d019      	beq.n	8003100 <lis3dh_i2c_write+0x44>
 80030cc:	2b01      	cmp	r3, #1
 80030ce:	d903      	bls.n	80030d8 <lis3dh_i2c_write+0x1c>
 80030d0:	2180      	movs	r1, #128	@ 0x80
 80030d2:	4249      	negs	r1, r1
 80030d4:	430d      	orrs	r5, r1
 80030d6:	b2ed      	uxtb	r5, r5
 80030d8:	7961      	ldrb	r1, [r4, #5]
 80030da:	7920      	ldrb	r0, [r4, #4]
 80030dc:	9300      	str	r3, [sp, #0]
 80030de:	0013      	movs	r3, r2
 80030e0:	002a      	movs	r2, r5
 80030e2:	f7fe fbb5 	bl	8001850 <i2c_slave_write>
 80030e6:	2800      	cmp	r0, #0
 80030e8:	d102      	bne.n	80030f0 <lis3dh_i2c_write+0x34>
 80030ea:	2001      	movs	r0, #1
 80030ec:	b003      	add	sp, #12
 80030ee:	bd30      	pop	{r4, r5, pc}
 80030f0:	6823      	ldr	r3, [r4, #0]
 80030f2:	2202      	movs	r2, #2
 80030f4:	4313      	orrs	r3, r2
 80030f6:	6023      	str	r3, [r4, #0]
 80030f8:	2000      	movs	r0, #0
 80030fa:	e7f7      	b.n	80030ec <lis3dh_i2c_write+0x30>
 80030fc:	2000      	movs	r0, #0
 80030fe:	e7f5      	b.n	80030ec <lis3dh_i2c_write+0x30>
 8003100:	2000      	movs	r0, #0
 8003102:	e7f3      	b.n	80030ec <lis3dh_i2c_write+0x30>

08003104 <lis3dh_reg_read>:
 8003104:	b510      	push	{r4, lr}
 8003106:	2800      	cmp	r0, #0
 8003108:	d00a      	beq.n	8003120 <lis3dh_reg_read+0x1c>
 800310a:	2a00      	cmp	r2, #0
 800310c:	d00a      	beq.n	8003124 <lis3dh_reg_read+0x20>
 800310e:	7944      	ldrb	r4, [r0, #5]
 8003110:	2c00      	cmp	r4, #0
 8003112:	d002      	beq.n	800311a <lis3dh_reg_read+0x16>
 8003114:	f7ff ff28 	bl	8002f68 <lis3dh_i2c_read>
 8003118:	bd10      	pop	{r4, pc}
 800311a:	f7ff ff49 	bl	8002fb0 <lis3dh_spi_read>
 800311e:	e7fb      	b.n	8003118 <lis3dh_reg_read+0x14>
 8003120:	2000      	movs	r0, #0
 8003122:	e7f9      	b.n	8003118 <lis3dh_reg_read+0x14>
 8003124:	2000      	movs	r0, #0
 8003126:	e7f7      	b.n	8003118 <lis3dh_reg_read+0x14>

08003128 <lis3dh_is_available>:
 8003128:	b510      	push	{r4, lr}
 800312a:	b082      	sub	sp, #8
 800312c:	1e04      	subs	r4, r0, #0
 800312e:	d013      	beq.n	8003158 <lis3dh_is_available+0x30>
 8003130:	2300      	movs	r3, #0
 8003132:	6003      	str	r3, [r0, #0]
 8003134:	3301      	adds	r3, #1
 8003136:	466a      	mov	r2, sp
 8003138:	3207      	adds	r2, #7
 800313a:	210f      	movs	r1, #15
 800313c:	f7ff ffe2 	bl	8003104 <lis3dh_reg_read>
 8003140:	2800      	cmp	r0, #0
 8003142:	d00a      	beq.n	800315a <lis3dh_is_available+0x32>
 8003144:	466b      	mov	r3, sp
 8003146:	3307      	adds	r3, #7
 8003148:	781b      	ldrb	r3, [r3, #0]
 800314a:	2b33      	cmp	r3, #51	@ 0x33
 800314c:	d005      	beq.n	800315a <lis3dh_is_available+0x32>
 800314e:	2380      	movs	r3, #128	@ 0x80
 8003150:	005b      	lsls	r3, r3, #1
 8003152:	6023      	str	r3, [r4, #0]
 8003154:	2000      	movs	r0, #0
 8003156:	e000      	b.n	800315a <lis3dh_is_available+0x32>
 8003158:	2000      	movs	r0, #0
 800315a:	b002      	add	sp, #8
 800315c:	bd10      	pop	{r4, pc}

0800315e <lis3dh_get_hpf_ref>:
 800315e:	b510      	push	{r4, lr}
 8003160:	b082      	sub	sp, #8
 8003162:	1e04      	subs	r4, r0, #0
 8003164:	d014      	beq.n	8003190 <lis3dh_get_hpf_ref+0x32>
 8003166:	2300      	movs	r3, #0
 8003168:	6003      	str	r3, [r0, #0]
 800316a:	3301      	adds	r3, #1
 800316c:	466a      	mov	r2, sp
 800316e:	3207      	adds	r2, #7
 8003170:	2126      	movs	r1, #38	@ 0x26
 8003172:	f7ff ffc7 	bl	8003104 <lis3dh_reg_read>
 8003176:	2800      	cmp	r0, #0
 8003178:	d004      	beq.n	8003184 <lis3dh_get_hpf_ref+0x26>
 800317a:	466b      	mov	r3, sp
 800317c:	2007      	movs	r0, #7
 800317e:	5618      	ldrsb	r0, [r3, r0]
 8003180:	b002      	add	sp, #8
 8003182:	bd10      	pop	{r4, pc}
 8003184:	6822      	ldr	r2, [r4, #0]
 8003186:	2390      	movs	r3, #144	@ 0x90
 8003188:	011b      	lsls	r3, r3, #4
 800318a:	4313      	orrs	r3, r2
 800318c:	6023      	str	r3, [r4, #0]
 800318e:	e7f7      	b.n	8003180 <lis3dh_get_hpf_ref+0x22>
 8003190:	2000      	movs	r0, #0
 8003192:	e7f5      	b.n	8003180 <lis3dh_get_hpf_ref+0x22>

08003194 <lis3dh_reg_write>:
 8003194:	b510      	push	{r4, lr}
 8003196:	2800      	cmp	r0, #0
 8003198:	d00a      	beq.n	80031b0 <lis3dh_reg_write+0x1c>
 800319a:	2a00      	cmp	r2, #0
 800319c:	d00a      	beq.n	80031b4 <lis3dh_reg_write+0x20>
 800319e:	7944      	ldrb	r4, [r0, #5]
 80031a0:	2c00      	cmp	r4, #0
 80031a2:	d002      	beq.n	80031aa <lis3dh_reg_write+0x16>
 80031a4:	f7ff ff8a 	bl	80030bc <lis3dh_i2c_write>
 80031a8:	bd10      	pop	{r4, pc}
 80031aa:	f7ff ff4f 	bl	800304c <lis3dh_spi_write>
 80031ae:	e7fb      	b.n	80031a8 <lis3dh_reg_write+0x14>
 80031b0:	2000      	movs	r0, #0
 80031b2:	e7f9      	b.n	80031a8 <lis3dh_reg_write+0x14>
 80031b4:	2000      	movs	r0, #0
 80031b6:	e7f7      	b.n	80031a8 <lis3dh_reg_write+0x14>

080031b8 <lis3dh_reset>:
 80031b8:	b510      	push	{r4, lr}
 80031ba:	b082      	sub	sp, #8
 80031bc:	1e04      	subs	r4, r0, #0
 80031be:	d039      	beq.n	8003234 <lis3dh_reset+0x7c>
 80031c0:	2300      	movs	r3, #0
 80031c2:	6003      	str	r3, [r0, #0]
 80031c4:	2208      	movs	r2, #8
 80031c6:	2100      	movs	r1, #0
 80031c8:	4668      	mov	r0, sp
 80031ca:	f000 fdd9 	bl	8003d80 <memset>
 80031ce:	2308      	movs	r3, #8
 80031d0:	466a      	mov	r2, sp
 80031d2:	211f      	movs	r1, #31
 80031d4:	0020      	movs	r0, r4
 80031d6:	f7ff ffdd 	bl	8003194 <lis3dh_reg_write>
 80031da:	2301      	movs	r3, #1
 80031dc:	466a      	mov	r2, sp
 80031de:	212e      	movs	r1, #46	@ 0x2e
 80031e0:	0020      	movs	r0, r4
 80031e2:	f7ff ffd7 	bl	8003194 <lis3dh_reg_write>
 80031e6:	2301      	movs	r3, #1
 80031e8:	466a      	mov	r2, sp
 80031ea:	2130      	movs	r1, #48	@ 0x30
 80031ec:	0020      	movs	r0, r4
 80031ee:	f7ff ffd1 	bl	8003194 <lis3dh_reg_write>
 80031f2:	2302      	movs	r3, #2
 80031f4:	466a      	mov	r2, sp
 80031f6:	2132      	movs	r1, #50	@ 0x32
 80031f8:	0020      	movs	r0, r4
 80031fa:	f7ff ffcb 	bl	8003194 <lis3dh_reg_write>
 80031fe:	2301      	movs	r3, #1
 8003200:	466a      	mov	r2, sp
 8003202:	2134      	movs	r1, #52	@ 0x34
 8003204:	0020      	movs	r0, r4
 8003206:	f7ff ffc5 	bl	8003194 <lis3dh_reg_write>
 800320a:	2302      	movs	r3, #2
 800320c:	466a      	mov	r2, sp
 800320e:	2136      	movs	r1, #54	@ 0x36
 8003210:	0020      	movs	r0, r4
 8003212:	f7ff ffbf 	bl	8003194 <lis3dh_reg_write>
 8003216:	2301      	movs	r3, #1
 8003218:	466a      	mov	r2, sp
 800321a:	2138      	movs	r1, #56	@ 0x38
 800321c:	0020      	movs	r0, r4
 800321e:	f7ff ffb9 	bl	8003194 <lis3dh_reg_write>
 8003222:	2304      	movs	r3, #4
 8003224:	466a      	mov	r2, sp
 8003226:	213a      	movs	r1, #58	@ 0x3a
 8003228:	0020      	movs	r0, r4
 800322a:	f7ff ffb3 	bl	8003194 <lis3dh_reg_write>
 800322e:	2001      	movs	r0, #1
 8003230:	b002      	add	sp, #8
 8003232:	bd10      	pop	{r4, pc}
 8003234:	2000      	movs	r0, #0
 8003236:	e7fb      	b.n	8003230 <lis3dh_reset+0x78>

08003238 <lis3dh_init_sensor>:
 8003238:	b5f0      	push	{r4, r5, r6, r7, lr}
 800323a:	b083      	sub	sp, #12
 800323c:	0007      	movs	r7, r0
 800323e:	000e      	movs	r6, r1
 8003240:	0015      	movs	r5, r2
 8003242:	200c      	movs	r0, #12
 8003244:	f000 fc88 	bl	8003b58 <malloc>
 8003248:	1e04      	subs	r4, r0, #0
 800324a:	d064      	beq.n	8003316 <lis3dh_init_sensor+0xde>
 800324c:	4b33      	ldr	r3, [pc, #204]	@ (800331c <lis3dh_init_sensor+0xe4>)
 800324e:	6018      	str	r0, [r3, #0]
 8003250:	7107      	strb	r7, [r0, #4]
 8003252:	7146      	strb	r6, [r0, #5]
 8003254:	7185      	strb	r5, [r0, #6]
 8003256:	2300      	movs	r3, #0
 8003258:	6003      	str	r3, [r0, #0]
 800325a:	71c3      	strb	r3, [r0, #7]
 800325c:	7243      	strb	r3, [r0, #9]
 800325e:	3301      	adds	r3, #1
 8003260:	7283      	strb	r3, [r0, #10]
 8003262:	2e00      	cmp	r6, #0
 8003264:	d105      	bne.n	8003272 <lis3dh_init_sensor+0x3a>
 8003266:	0029      	movs	r1, r5
 8003268:	0038      	movs	r0, r7
 800326a:	f7fe fa5b 	bl	8001724 <spi_device_init>
 800326e:	2800      	cmp	r0, #0
 8003270:	d038      	beq.n	80032e4 <lis3dh_init_sensor+0xac>
 8003272:	0020      	movs	r0, r4
 8003274:	f7ff ff58 	bl	8003128 <lis3dh_is_available>
 8003278:	2800      	cmp	r0, #0
 800327a:	d03b      	beq.n	80032f4 <lis3dh_init_sensor+0xbc>
 800327c:	0020      	movs	r0, r4
 800327e:	f7ff ff9b 	bl	80031b8 <lis3dh_reset>
 8003282:	2800      	cmp	r0, #0
 8003284:	d03e      	beq.n	8003304 <lis3dh_init_sensor+0xcc>
 8003286:	2301      	movs	r3, #1
 8003288:	aa01      	add	r2, sp, #4
 800328a:	2123      	movs	r1, #35	@ 0x23
 800328c:	0020      	movs	r0, r4
 800328e:	f7ff ff39 	bl	8003104 <lis3dh_reg_read>
 8003292:	2800      	cmp	r0, #0
 8003294:	d03e      	beq.n	8003314 <lis3dh_init_sensor+0xdc>
 8003296:	466b      	mov	r3, sp
 8003298:	791b      	ldrb	r3, [r3, #4]
 800329a:	2230      	movs	r2, #48	@ 0x30
 800329c:	4393      	bics	r3, r2
 800329e:	466a      	mov	r2, sp
 80032a0:	7113      	strb	r3, [r2, #4]
 80032a2:	2301      	movs	r3, #1
 80032a4:	aa01      	add	r2, sp, #4
 80032a6:	2123      	movs	r1, #35	@ 0x23
 80032a8:	0020      	movs	r0, r4
 80032aa:	f7ff ff73 	bl	8003194 <lis3dh_reg_write>
 80032ae:	2800      	cmp	r0, #0
 80032b0:	d030      	beq.n	8003314 <lis3dh_init_sensor+0xdc>
 80032b2:	2301      	movs	r3, #1
 80032b4:	aa01      	add	r2, sp, #4
 80032b6:	2123      	movs	r1, #35	@ 0x23
 80032b8:	0020      	movs	r0, r4
 80032ba:	f7ff ff23 	bl	8003104 <lis3dh_reg_read>
 80032be:	2800      	cmp	r0, #0
 80032c0:	d00e      	beq.n	80032e0 <lis3dh_init_sensor+0xa8>
 80032c2:	466b      	mov	r3, sp
 80032c4:	791a      	ldrb	r2, [r3, #4]
 80032c6:	2380      	movs	r3, #128	@ 0x80
 80032c8:	425b      	negs	r3, r3
 80032ca:	4313      	orrs	r3, r2
 80032cc:	466a      	mov	r2, sp
 80032ce:	7113      	strb	r3, [r2, #4]
 80032d0:	2301      	movs	r3, #1
 80032d2:	aa01      	add	r2, sp, #4
 80032d4:	2123      	movs	r1, #35	@ 0x23
 80032d6:	0020      	movs	r0, r4
 80032d8:	f7ff ff5c 	bl	8003194 <lis3dh_reg_write>
 80032dc:	2800      	cmp	r0, #0
 80032de:	d11a      	bne.n	8003316 <lis3dh_init_sensor+0xde>
 80032e0:	2400      	movs	r4, #0
 80032e2:	e018      	b.n	8003316 <lis3dh_init_sensor+0xde>
 80032e4:	0020      	movs	r0, r4
 80032e6:	f000 fc41 	bl	8003b6c <free>
 80032ea:	4b0c      	ldr	r3, [pc, #48]	@ (800331c <lis3dh_init_sensor+0xe4>)
 80032ec:	2200      	movs	r2, #0
 80032ee:	601a      	str	r2, [r3, #0]
 80032f0:	2400      	movs	r4, #0
 80032f2:	e010      	b.n	8003316 <lis3dh_init_sensor+0xde>
 80032f4:	0020      	movs	r0, r4
 80032f6:	f000 fc39 	bl	8003b6c <free>
 80032fa:	4b08      	ldr	r3, [pc, #32]	@ (800331c <lis3dh_init_sensor+0xe4>)
 80032fc:	2200      	movs	r2, #0
 80032fe:	601a      	str	r2, [r3, #0]
 8003300:	2400      	movs	r4, #0
 8003302:	e008      	b.n	8003316 <lis3dh_init_sensor+0xde>
 8003304:	0020      	movs	r0, r4
 8003306:	f000 fc31 	bl	8003b6c <free>
 800330a:	4b04      	ldr	r3, [pc, #16]	@ (800331c <lis3dh_init_sensor+0xe4>)
 800330c:	2200      	movs	r2, #0
 800330e:	601a      	str	r2, [r3, #0]
 8003310:	2400      	movs	r4, #0
 8003312:	e000      	b.n	8003316 <lis3dh_init_sensor+0xde>
 8003314:	2400      	movs	r4, #0
 8003316:	0020      	movs	r0, r4
 8003318:	b003      	add	sp, #12
 800331a:	bdf0      	pop	{r4, r5, r6, r7, pc}
 800331c:	20000494 	.word	0x20000494

08003320 <lis3dh_set_mode>:
 8003320:	b5f0      	push	{r4, r5, r6, r7, lr}
 8003322:	46d6      	mov	lr, sl
 8003324:	4647      	mov	r7, r8
 8003326:	b580      	push	{r7, lr}
 8003328:	b085      	sub	sp, #20
 800332a:	0004      	movs	r4, r0
 800332c:	9101      	str	r1, [sp, #4]
 800332e:	0015      	movs	r5, r2
 8003330:	001e      	movs	r6, r3
 8003332:	ab0c      	add	r3, sp, #48	@ 0x30
 8003334:	781b      	ldrb	r3, [r3, #0]
 8003336:	469a      	mov	sl, r3
 8003338:	ab0d      	add	r3, sp, #52	@ 0x34
 800333a:	781f      	ldrb	r7, [r3, #0]
 800333c:	2800      	cmp	r0, #0
 800333e:	d009      	beq.n	8003354 <lis3dh_set_mode+0x34>
 8003340:	2300      	movs	r3, #0
 8003342:	6003      	str	r3, [r0, #0]
 8003344:	7202      	strb	r2, [r0, #8]
 8003346:	3301      	adds	r3, #1
 8003348:	aa03      	add	r2, sp, #12
 800334a:	2120      	movs	r1, #32
 800334c:	f7ff feda 	bl	8003104 <lis3dh_reg_read>
 8003350:	2800      	cmp	r0, #0
 8003352:	d105      	bne.n	8003360 <lis3dh_set_mode+0x40>
 8003354:	2000      	movs	r0, #0
 8003356:	b005      	add	sp, #20
 8003358:	bcc0      	pop	{r6, r7}
 800335a:	46ba      	mov	sl, r7
 800335c:	46b0      	mov	r8, r6
 800335e:	bdf0      	pop	{r4, r5, r6, r7, pc}
 8003360:	ab03      	add	r3, sp, #12
 8003362:	781a      	ldrb	r2, [r3, #0]
 8003364:	0910      	lsrs	r0, r2, #4
 8003366:	4680      	mov	r8, r0
 8003368:	2101      	movs	r1, #1
 800336a:	400e      	ands	r6, r1
 800336c:	2001      	movs	r0, #1
 800336e:	4382      	bics	r2, r0
 8003370:	4332      	orrs	r2, r6
 8003372:	701a      	strb	r2, [r3, #0]
 8003374:	4652      	mov	r2, sl
 8003376:	400a      	ands	r2, r1
 8003378:	0052      	lsls	r2, r2, #1
 800337a:	7818      	ldrb	r0, [r3, #0]
 800337c:	2602      	movs	r6, #2
 800337e:	43b0      	bics	r0, r6
 8003380:	4302      	orrs	r2, r0
 8003382:	701a      	strb	r2, [r3, #0]
 8003384:	003a      	movs	r2, r7
 8003386:	400a      	ands	r2, r1
 8003388:	0092      	lsls	r2, r2, #2
 800338a:	7818      	ldrb	r0, [r3, #0]
 800338c:	3602      	adds	r6, #2
 800338e:	43b0      	bics	r0, r6
 8003390:	4302      	orrs	r2, r0
 8003392:	701a      	strb	r2, [r3, #0]
 8003394:	9f01      	ldr	r7, [sp, #4]
 8003396:	0138      	lsls	r0, r7, #4
 8003398:	b2d6      	uxtb	r6, r2
 800339a:	220f      	movs	r2, #15
 800339c:	4032      	ands	r2, r6
 800339e:	4302      	orrs	r2, r0
 80033a0:	701a      	strb	r2, [r3, #0]
 80033a2:	426a      	negs	r2, r5
 80033a4:	416a      	adcs	r2, r5
 80033a6:	4011      	ands	r1, r2
 80033a8:	00c9      	lsls	r1, r1, #3
 80033aa:	781a      	ldrb	r2, [r3, #0]
 80033ac:	2008      	movs	r0, #8
 80033ae:	4382      	bics	r2, r0
 80033b0:	430a      	orrs	r2, r1
 80033b2:	701a      	strb	r2, [r3, #0]
 80033b4:	2301      	movs	r3, #1
 80033b6:	aa02      	add	r2, sp, #8
 80033b8:	2123      	movs	r1, #35	@ 0x23
 80033ba:	0020      	movs	r0, r4
 80033bc:	f7ff fea2 	bl	8003104 <lis3dh_reg_read>
 80033c0:	2800      	cmp	r0, #0
 80033c2:	d0c7      	beq.n	8003354 <lis3dh_set_mode+0x34>
 80033c4:	3d02      	subs	r5, #2
 80033c6:	426b      	negs	r3, r5
 80033c8:	415d      	adcs	r5, r3
 80033ca:	00ed      	lsls	r5, r5, #3
 80033cc:	ab02      	add	r3, sp, #8
 80033ce:	781b      	ldrb	r3, [r3, #0]
 80033d0:	2208      	movs	r2, #8
 80033d2:	4393      	bics	r3, r2
 80033d4:	432b      	orrs	r3, r5
 80033d6:	aa02      	add	r2, sp, #8
 80033d8:	7013      	strb	r3, [r2, #0]
 80033da:	2301      	movs	r3, #1
 80033dc:	2123      	movs	r1, #35	@ 0x23
 80033de:	0020      	movs	r0, r4
 80033e0:	f7ff fed8 	bl	8003194 <lis3dh_reg_write>
 80033e4:	2800      	cmp	r0, #0
 80033e6:	d0b5      	beq.n	8003354 <lis3dh_set_mode+0x34>
 80033e8:	2301      	movs	r3, #1
 80033ea:	aa03      	add	r2, sp, #12
 80033ec:	2120      	movs	r1, #32
 80033ee:	0020      	movs	r0, r4
 80033f0:	f7ff fed0 	bl	8003194 <lis3dh_reg_write>
 80033f4:	2800      	cmp	r0, #0
 80033f6:	d0ad      	beq.n	8003354 <lis3dh_set_mode+0x34>
 80033f8:	4643      	mov	r3, r8
 80033fa:	2b00      	cmp	r3, #0
 80033fc:	d1aa      	bne.n	8003354 <lis3dh_set_mode+0x34>
 80033fe:	2f00      	cmp	r7, #0
 8003400:	d0a8      	beq.n	8003354 <lis3dh_set_mode+0x34>
 8003402:	2064      	movs	r0, #100	@ 0x64
 8003404:	f7fd ff3e 	bl	8001284 <LL_mDelay>
 8003408:	e7a4      	b.n	8003354 <lis3dh_set_mode+0x34>

0800340a <lis3dh_set_scale>:
 800340a:	b530      	push	{r4, r5, lr}
 800340c:	b083      	sub	sp, #12
 800340e:	0004      	movs	r4, r0
 8003410:	000d      	movs	r5, r1
 8003412:	2800      	cmp	r0, #0
 8003414:	d01f      	beq.n	8003456 <lis3dh_set_scale+0x4c>
 8003416:	2300      	movs	r3, #0
 8003418:	6003      	str	r3, [r0, #0]
 800341a:	71c1      	strb	r1, [r0, #7]
 800341c:	3301      	adds	r3, #1
 800341e:	aa01      	add	r2, sp, #4
 8003420:	2123      	movs	r1, #35	@ 0x23
 8003422:	f7ff fe6f 	bl	8003104 <lis3dh_reg_read>
 8003426:	2800      	cmp	r0, #0
 8003428:	d102      	bne.n	8003430 <lis3dh_set_scale+0x26>
 800342a:	2000      	movs	r0, #0
 800342c:	b003      	add	sp, #12
 800342e:	bd30      	pop	{r4, r5, pc}
 8003430:	2203      	movs	r2, #3
 8003432:	402a      	ands	r2, r5
 8003434:	0112      	lsls	r2, r2, #4
 8003436:	466b      	mov	r3, sp
 8003438:	791b      	ldrb	r3, [r3, #4]
 800343a:	2130      	movs	r1, #48	@ 0x30
 800343c:	438b      	bics	r3, r1
 800343e:	4313      	orrs	r3, r2
 8003440:	466a      	mov	r2, sp
 8003442:	7113      	strb	r3, [r2, #4]
 8003444:	2301      	movs	r3, #1
 8003446:	aa01      	add	r2, sp, #4
 8003448:	390d      	subs	r1, #13
 800344a:	0020      	movs	r0, r4
 800344c:	f7ff fea2 	bl	8003194 <lis3dh_reg_write>
 8003450:	2800      	cmp	r0, #0
 8003452:	d1eb      	bne.n	800342c <lis3dh_set_scale+0x22>
 8003454:	e7e9      	b.n	800342a <lis3dh_set_scale+0x20>
 8003456:	2000      	movs	r0, #0
 8003458:	e7e8      	b.n	800342c <lis3dh_set_scale+0x22>
	...

0800345c <lis3dh_enable_int>:
 800345c:	b5f0      	push	{r4, r5, r6, r7, lr}
 800345e:	46ce      	mov	lr, r9
 8003460:	4647      	mov	r7, r8
 8003462:	b580      	push	{r7, lr}
 8003464:	b083      	sub	sp, #12
 8003466:	0004      	movs	r4, r0
 8003468:	000f      	movs	r7, r1
 800346a:	0015      	movs	r5, r2
 800346c:	001e      	movs	r6, r3
 800346e:	2800      	cmp	r0, #0
 8003470:	d100      	bne.n	8003474 <lis3dh_enable_int+0x18>
 8003472:	e09d      	b.n	80035b0 <lis3dh_enable_int+0x154>
 8003474:	2300      	movs	r3, #0
 8003476:	6003      	str	r3, [r0, #0]
 8003478:	2902      	cmp	r1, #2
 800347a:	d906      	bls.n	800348a <lis3dh_enable_int+0x2e>
 800347c:	2a00      	cmp	r2, #0
 800347e:	d117      	bne.n	80034b0 <lis3dh_enable_int+0x54>
 8003480:	3322      	adds	r3, #34	@ 0x22
 8003482:	4698      	mov	r8, r3
 8003484:	ab01      	add	r3, sp, #4
 8003486:	4699      	mov	r9, r3
 8003488:	e003      	b.n	8003492 <lis3dh_enable_int+0x36>
 800348a:	2322      	movs	r3, #34	@ 0x22
 800348c:	4698      	mov	r8, r3
 800348e:	ab01      	add	r3, sp, #4
 8003490:	4699      	mov	r9, r3
 8003492:	2301      	movs	r3, #1
 8003494:	464a      	mov	r2, r9
 8003496:	4641      	mov	r1, r8
 8003498:	0020      	movs	r0, r4
 800349a:	f7ff fe33 	bl	8003104 <lis3dh_reg_read>
 800349e:	2800      	cmp	r0, #0
 80034a0:	d00a      	beq.n	80034b8 <lis3dh_enable_int+0x5c>
 80034a2:	2f05      	cmp	r7, #5
 80034a4:	d900      	bls.n	80034a8 <lis3dh_enable_int+0x4c>
 80034a6:	e078      	b.n	800359a <lis3dh_enable_int+0x13e>
 80034a8:	00bf      	lsls	r7, r7, #2
 80034aa:	4b42      	ldr	r3, [pc, #264]	@ (80035b4 <lis3dh_enable_int+0x158>)
 80034ac:	59db      	ldr	r3, [r3, r7]
 80034ae:	469f      	mov	pc, r3
 80034b0:	2325      	movs	r3, #37	@ 0x25
 80034b2:	4698      	mov	r8, r3
 80034b4:	46e9      	mov	r9, sp
 80034b6:	e7ec      	b.n	8003492 <lis3dh_enable_int+0x36>
 80034b8:	6822      	ldr	r2, [r4, #0]
 80034ba:	23e0      	movs	r3, #224	@ 0xe0
 80034bc:	00db      	lsls	r3, r3, #3
 80034be:	4313      	orrs	r3, r2
 80034c0:	6023      	str	r3, [r4, #0]
 80034c2:	e010      	b.n	80034e6 <lis3dh_enable_int+0x8a>
 80034c4:	aa01      	add	r2, sp, #4
 80034c6:	2101      	movs	r1, #1
 80034c8:	4031      	ands	r1, r6
 80034ca:	0109      	lsls	r1, r1, #4
 80034cc:	7813      	ldrb	r3, [r2, #0]
 80034ce:	2010      	movs	r0, #16
 80034d0:	4383      	bics	r3, r0
 80034d2:	430b      	orrs	r3, r1
 80034d4:	7013      	strb	r3, [r2, #0]
 80034d6:	2301      	movs	r3, #1
 80034d8:	464a      	mov	r2, r9
 80034da:	4641      	mov	r1, r8
 80034dc:	0020      	movs	r0, r4
 80034de:	f7ff fe59 	bl	8003194 <lis3dh_reg_write>
 80034e2:	2800      	cmp	r0, #0
 80034e4:	d05e      	beq.n	80035a4 <lis3dh_enable_int+0x148>
 80034e6:	b003      	add	sp, #12
 80034e8:	bcc0      	pop	{r6, r7}
 80034ea:	46b9      	mov	r9, r7
 80034ec:	46b0      	mov	r8, r6
 80034ee:	bdf0      	pop	{r4, r5, r6, r7, pc}
 80034f0:	aa01      	add	r2, sp, #4
 80034f2:	2101      	movs	r1, #1
 80034f4:	4031      	ands	r1, r6
 80034f6:	0089      	lsls	r1, r1, #2
 80034f8:	7813      	ldrb	r3, [r2, #0]
 80034fa:	2004      	movs	r0, #4
 80034fc:	4383      	bics	r3, r0
 80034fe:	430b      	orrs	r3, r1
 8003500:	7013      	strb	r3, [r2, #0]
 8003502:	e7e8      	b.n	80034d6 <lis3dh_enable_int+0x7a>
 8003504:	aa01      	add	r2, sp, #4
 8003506:	2101      	movs	r1, #1
 8003508:	4031      	ands	r1, r6
 800350a:	0049      	lsls	r1, r1, #1
 800350c:	7813      	ldrb	r3, [r2, #0]
 800350e:	2002      	movs	r0, #2
 8003510:	4383      	bics	r3, r0
 8003512:	430b      	orrs	r3, r1
 8003514:	7013      	strb	r3, [r2, #0]
 8003516:	e7de      	b.n	80034d6 <lis3dh_enable_int+0x7a>
 8003518:	2d00      	cmp	r5, #0
 800351a:	d109      	bne.n	8003530 <lis3dh_enable_int+0xd4>
 800351c:	aa01      	add	r2, sp, #4
 800351e:	2101      	movs	r1, #1
 8003520:	4031      	ands	r1, r6
 8003522:	0189      	lsls	r1, r1, #6
 8003524:	7813      	ldrb	r3, [r2, #0]
 8003526:	2040      	movs	r0, #64	@ 0x40
 8003528:	4383      	bics	r3, r0
 800352a:	430b      	orrs	r3, r1
 800352c:	7013      	strb	r3, [r2, #0]
 800352e:	e7d2      	b.n	80034d6 <lis3dh_enable_int+0x7a>
 8003530:	2201      	movs	r2, #1
 8003532:	4032      	ands	r2, r6
 8003534:	0192      	lsls	r2, r2, #6
 8003536:	466b      	mov	r3, sp
 8003538:	781b      	ldrb	r3, [r3, #0]
 800353a:	2140      	movs	r1, #64	@ 0x40
 800353c:	438b      	bics	r3, r1
 800353e:	4313      	orrs	r3, r2
 8003540:	466a      	mov	r2, sp
 8003542:	7013      	strb	r3, [r2, #0]
 8003544:	e7c7      	b.n	80034d6 <lis3dh_enable_int+0x7a>
 8003546:	2d00      	cmp	r5, #0
 8003548:	d109      	bne.n	800355e <lis3dh_enable_int+0x102>
 800354a:	aa01      	add	r2, sp, #4
 800354c:	2101      	movs	r1, #1
 800354e:	4031      	ands	r1, r6
 8003550:	0149      	lsls	r1, r1, #5
 8003552:	7813      	ldrb	r3, [r2, #0]
 8003554:	2020      	movs	r0, #32
 8003556:	4383      	bics	r3, r0
 8003558:	430b      	orrs	r3, r1
 800355a:	7013      	strb	r3, [r2, #0]
 800355c:	e7bb      	b.n	80034d6 <lis3dh_enable_int+0x7a>
 800355e:	2201      	movs	r2, #1
 8003560:	4032      	ands	r2, r6
 8003562:	0152      	lsls	r2, r2, #5
 8003564:	466b      	mov	r3, sp
 8003566:	781b      	ldrb	r3, [r3, #0]
 8003568:	2120      	movs	r1, #32
 800356a:	438b      	bics	r3, r1
 800356c:	4313      	orrs	r3, r2
 800356e:	466a      	mov	r2, sp
 8003570:	7013      	strb	r3, [r2, #0]
 8003572:	e7b0      	b.n	80034d6 <lis3dh_enable_int+0x7a>
 8003574:	2d00      	cmp	r5, #0
 8003576:	d107      	bne.n	8003588 <lis3dh_enable_int+0x12c>
 8003578:	ab01      	add	r3, sp, #4
 800357a:	01f2      	lsls	r2, r6, #7
 800357c:	7819      	ldrb	r1, [r3, #0]
 800357e:	267f      	movs	r6, #127	@ 0x7f
 8003580:	400e      	ands	r6, r1
 8003582:	4316      	orrs	r6, r2
 8003584:	701e      	strb	r6, [r3, #0]
 8003586:	e7a6      	b.n	80034d6 <lis3dh_enable_int+0x7a>
 8003588:	01f6      	lsls	r6, r6, #7
 800358a:	466b      	mov	r3, sp
 800358c:	781a      	ldrb	r2, [r3, #0]
 800358e:	237f      	movs	r3, #127	@ 0x7f
 8003590:	4013      	ands	r3, r2
 8003592:	4333      	orrs	r3, r6
 8003594:	466a      	mov	r2, sp
 8003596:	7013      	strb	r3, [r2, #0]
 8003598:	e79d      	b.n	80034d6 <lis3dh_enable_int+0x7a>
 800359a:	23a0      	movs	r3, #160	@ 0xa0
 800359c:	00db      	lsls	r3, r3, #3
 800359e:	6023      	str	r3, [r4, #0]
 80035a0:	2000      	movs	r0, #0
 80035a2:	e7a0      	b.n	80034e6 <lis3dh_enable_int+0x8a>
 80035a4:	6822      	ldr	r2, [r4, #0]
 80035a6:	23e0      	movs	r3, #224	@ 0xe0
 80035a8:	00db      	lsls	r3, r3, #3
 80035aa:	4313      	orrs	r3, r2
 80035ac:	6023      	str	r3, [r4, #0]
 80035ae:	e79a      	b.n	80034e6 <lis3dh_enable_int+0x8a>
 80035b0:	2000      	movs	r0, #0
 80035b2:	e798      	b.n	80034e6 <lis3dh_enable_int+0x8a>
 80035b4:	080053c4 	.word	0x080053c4

080035b8 <lis3dh_set_int_event_config>:
 80035b8:	b5f0      	push	{r4, r5, r6, r7, lr}
 80035ba:	46ce      	mov	lr, r9
 80035bc:	4647      	mov	r7, r8
 80035be:	b580      	push	{r7, lr}
 80035c0:	b083      	sub	sp, #12
 80035c2:	0005      	movs	r5, r0
 80035c4:	000c      	movs	r4, r1
 80035c6:	0016      	movs	r6, r2
 80035c8:	2800      	cmp	r0, #0
 80035ca:	d100      	bne.n	80035ce <lis3dh_set_int_event_config+0x16>
 80035cc:	e115      	b.n	80037fa <lis3dh_set_int_event_config+0x242>
 80035ce:	2900      	cmp	r1, #0
 80035d0:	d100      	bne.n	80035d4 <lis3dh_set_int_event_config+0x1c>
 80035d2:	e114      	b.n	80037fe <lis3dh_set_int_event_config+0x246>
 80035d4:	2300      	movs	r3, #0
 80035d6:	6003      	str	r3, [r0, #0]
 80035d8:	7888      	ldrb	r0, [r1, #2]
 80035da:	ab01      	add	r3, sp, #4
 80035dc:	2101      	movs	r1, #1
 80035de:	4008      	ands	r0, r1
 80035e0:	781a      	ldrb	r2, [r3, #0]
 80035e2:	2701      	movs	r7, #1
 80035e4:	43ba      	bics	r2, r7
 80035e6:	4302      	orrs	r2, r0
 80035e8:	701a      	strb	r2, [r3, #0]
 80035ea:	78e0      	ldrb	r0, [r4, #3]
 80035ec:	4008      	ands	r0, r1
 80035ee:	0040      	lsls	r0, r0, #1
 80035f0:	b2d2      	uxtb	r2, r2
 80035f2:	3701      	adds	r7, #1
 80035f4:	43ba      	bics	r2, r7
 80035f6:	4302      	orrs	r2, r0
 80035f8:	701a      	strb	r2, [r3, #0]
 80035fa:	7920      	ldrb	r0, [r4, #4]
 80035fc:	4008      	ands	r0, r1
 80035fe:	0080      	lsls	r0, r0, #2
 8003600:	b2d2      	uxtb	r2, r2
 8003602:	3702      	adds	r7, #2
 8003604:	43ba      	bics	r2, r7
 8003606:	4302      	orrs	r2, r0
 8003608:	701a      	strb	r2, [r3, #0]
 800360a:	7960      	ldrb	r0, [r4, #5]
 800360c:	4008      	ands	r0, r1
 800360e:	00c0      	lsls	r0, r0, #3
 8003610:	b2d2      	uxtb	r2, r2
 8003612:	3704      	adds	r7, #4
 8003614:	43ba      	bics	r2, r7
 8003616:	4302      	orrs	r2, r0
 8003618:	701a      	strb	r2, [r3, #0]
 800361a:	79a0      	ldrb	r0, [r4, #6]
 800361c:	4008      	ands	r0, r1
 800361e:	0100      	lsls	r0, r0, #4
 8003620:	b2d2      	uxtb	r2, r2
 8003622:	3708      	adds	r7, #8
 8003624:	43ba      	bics	r2, r7
 8003626:	4302      	orrs	r2, r0
 8003628:	701a      	strb	r2, [r3, #0]
 800362a:	79e2      	ldrb	r2, [r4, #7]
 800362c:	4011      	ands	r1, r2
 800362e:	0149      	lsls	r1, r1, #5
 8003630:	781a      	ldrb	r2, [r3, #0]
 8003632:	2020      	movs	r0, #32
 8003634:	4382      	bics	r2, r0
 8003636:	4311      	orrs	r1, r2
 8003638:	7019      	strb	r1, [r3, #0]
 800363a:	7823      	ldrb	r3, [r4, #0]
 800363c:	2b05      	cmp	r3, #5
 800363e:	d852      	bhi.n	80036e6 <lis3dh_set_int_event_config+0x12e>
 8003640:	009b      	lsls	r3, r3, #2
 8003642:	4a70      	ldr	r2, [pc, #448]	@ (8003804 <lis3dh_set_int_event_config+0x24c>)
 8003644:	58d3      	ldr	r3, [r2, r3]
 8003646:	469f      	mov	pc, r3
 8003648:	2300      	movs	r3, #0
 800364a:	4699      	mov	r9, r3
 800364c:	ab01      	add	r3, sp, #4
 800364e:	7819      	ldrb	r1, [r3, #0]
 8003650:	2280      	movs	r2, #128	@ 0x80
 8003652:	4252      	negs	r2, r2
 8003654:	430a      	orrs	r2, r1
 8003656:	701a      	strb	r2, [r3, #0]
 8003658:	b2d2      	uxtb	r2, r2
 800365a:	2140      	movs	r1, #64	@ 0x40
 800365c:	430a      	orrs	r2, r1
 800365e:	701a      	strb	r2, [r3, #0]
 8003660:	e00a      	b.n	8003678 <lis3dh_set_int_event_config+0xc0>
 8003662:	2300      	movs	r3, #0
 8003664:	4699      	mov	r9, r3
 8003666:	ab01      	add	r3, sp, #4
 8003668:	7819      	ldrb	r1, [r3, #0]
 800366a:	227f      	movs	r2, #127	@ 0x7f
 800366c:	400a      	ands	r2, r1
 800366e:	701a      	strb	r2, [r3, #0]
 8003670:	b2d2      	uxtb	r2, r2
 8003672:	2140      	movs	r1, #64	@ 0x40
 8003674:	430a      	orrs	r2, r1
 8003676:	701a      	strb	r2, [r3, #0]
 8003678:	2e00      	cmp	r6, #0
 800367a:	d137      	bne.n	80036ec <lis3dh_set_int_event_config+0x134>
 800367c:	2132      	movs	r1, #50	@ 0x32
 800367e:	2330      	movs	r3, #48	@ 0x30
 8003680:	4698      	mov	r8, r3
 8003682:	2733      	movs	r7, #51	@ 0x33
 8003684:	1c62      	adds	r2, r4, #1
 8003686:	2301      	movs	r3, #1
 8003688:	0028      	movs	r0, r5
 800368a:	f7ff fd83 	bl	8003194 <lis3dh_reg_write>
 800368e:	2800      	cmp	r0, #0
 8003690:	d131      	bne.n	80036f6 <lis3dh_set_int_event_config+0x13e>
 8003692:	682a      	ldr	r2, [r5, #0]
 8003694:	23e0      	movs	r3, #224	@ 0xe0
 8003696:	00db      	lsls	r3, r3, #3
 8003698:	4313      	orrs	r3, r2
 800369a:	602b      	str	r3, [r5, #0]
 800369c:	2000      	movs	r0, #0
 800369e:	b003      	add	sp, #12
 80036a0:	bcc0      	pop	{r6, r7}
 80036a2:	46b9      	mov	r9, r7
 80036a4:	46b0      	mov	r8, r6
 80036a6:	bdf0      	pop	{r4, r5, r6, r7, pc}
 80036a8:	ab01      	add	r3, sp, #4
 80036aa:	7819      	ldrb	r1, [r3, #0]
 80036ac:	227f      	movs	r2, #127	@ 0x7f
 80036ae:	400a      	ands	r2, r1
 80036b0:	701a      	strb	r2, [r3, #0]
 80036b2:	b2d2      	uxtb	r2, r2
 80036b4:	2140      	movs	r1, #64	@ 0x40
 80036b6:	438a      	bics	r2, r1
 80036b8:	701a      	strb	r2, [r3, #0]
 80036ba:	2300      	movs	r3, #0
 80036bc:	4699      	mov	r9, r3
 80036be:	e7db      	b.n	8003678 <lis3dh_set_int_event_config+0xc0>
 80036c0:	ab01      	add	r3, sp, #4
 80036c2:	7819      	ldrb	r1, [r3, #0]
 80036c4:	2280      	movs	r2, #128	@ 0x80
 80036c6:	4252      	negs	r2, r2
 80036c8:	430a      	orrs	r2, r1
 80036ca:	701a      	strb	r2, [r3, #0]
 80036cc:	b2d2      	uxtb	r2, r2
 80036ce:	2140      	movs	r1, #64	@ 0x40
 80036d0:	438a      	bics	r2, r1
 80036d2:	701a      	strb	r2, [r3, #0]
 80036d4:	2300      	movs	r3, #0
 80036d6:	4699      	mov	r9, r3
 80036d8:	e7ce      	b.n	8003678 <lis3dh_set_int_event_config+0xc0>
 80036da:	2301      	movs	r3, #1
 80036dc:	4699      	mov	r9, r3
 80036de:	e7c2      	b.n	8003666 <lis3dh_set_int_event_config+0xae>
 80036e0:	2301      	movs	r3, #1
 80036e2:	4699      	mov	r9, r3
 80036e4:	e7b2      	b.n	800364c <lis3dh_set_int_event_config+0x94>
 80036e6:	2300      	movs	r3, #0
 80036e8:	4699      	mov	r9, r3
 80036ea:	e7c5      	b.n	8003678 <lis3dh_set_int_event_config+0xc0>
 80036ec:	2136      	movs	r1, #54	@ 0x36
 80036ee:	2334      	movs	r3, #52	@ 0x34
 80036f0:	4698      	mov	r8, r3
 80036f2:	2737      	movs	r7, #55	@ 0x37
 80036f4:	e7c6      	b.n	8003684 <lis3dh_set_int_event_config+0xcc>
 80036f6:	2301      	movs	r3, #1
 80036f8:	0022      	movs	r2, r4
 80036fa:	3209      	adds	r2, #9
 80036fc:	0039      	movs	r1, r7
 80036fe:	0028      	movs	r0, r5
 8003700:	f7ff fd48 	bl	8003194 <lis3dh_reg_write>
 8003704:	2800      	cmp	r0, #0
 8003706:	d0c4      	beq.n	8003692 <lis3dh_set_int_event_config+0xda>
 8003708:	2301      	movs	r3, #1
 800370a:	aa01      	add	r2, sp, #4
 800370c:	4641      	mov	r1, r8
 800370e:	0028      	movs	r0, r5
 8003710:	f7ff fd40 	bl	8003194 <lis3dh_reg_write>
 8003714:	2800      	cmp	r0, #0
 8003716:	d0bc      	beq.n	8003692 <lis3dh_set_int_event_config+0xda>
 8003718:	2e00      	cmp	r6, #0
 800371a:	d137      	bne.n	800378c <lis3dh_set_int_event_config+0x1d4>
 800371c:	2301      	movs	r3, #1
 800371e:	466a      	mov	r2, sp
 8003720:	2124      	movs	r1, #36	@ 0x24
 8003722:	0028      	movs	r0, r5
 8003724:	f7ff fcee 	bl	8003104 <lis3dh_reg_read>
 8003728:	2800      	cmp	r0, #0
 800372a:	d101      	bne.n	8003730 <lis3dh_set_int_event_config+0x178>
 800372c:	2000      	movs	r0, #0
 800372e:	e7b6      	b.n	800369e <lis3dh_set_int_event_config+0xe6>
 8003730:	7a23      	ldrb	r3, [r4, #8]
 8003732:	2201      	movs	r2, #1
 8003734:	401a      	ands	r2, r3
 8003736:	00d2      	lsls	r2, r2, #3
 8003738:	466b      	mov	r3, sp
 800373a:	781b      	ldrb	r3, [r3, #0]
 800373c:	2108      	movs	r1, #8
 800373e:	438b      	bics	r3, r1
 8003740:	4313      	orrs	r3, r2
 8003742:	466a      	mov	r2, sp
 8003744:	7013      	strb	r3, [r2, #0]
 8003746:	2301      	movs	r3, #1
 8003748:	311c      	adds	r1, #28
 800374a:	0028      	movs	r0, r5
 800374c:	f7ff fd22 	bl	8003194 <lis3dh_reg_write>
 8003750:	2800      	cmp	r0, #0
 8003752:	d0eb      	beq.n	800372c <lis3dh_set_int_event_config+0x174>
 8003754:	2301      	movs	r3, #1
 8003756:	466a      	mov	r2, sp
 8003758:	2124      	movs	r1, #36	@ 0x24
 800375a:	0028      	movs	r0, r5
 800375c:	f7ff fcd2 	bl	8003104 <lis3dh_reg_read>
 8003760:	2800      	cmp	r0, #0
 8003762:	d101      	bne.n	8003768 <lis3dh_set_int_event_config+0x1b0>
 8003764:	2000      	movs	r0, #0
 8003766:	e79a      	b.n	800369e <lis3dh_set_int_event_config+0xe6>
 8003768:	464b      	mov	r3, r9
 800376a:	009a      	lsls	r2, r3, #2
 800376c:	466b      	mov	r3, sp
 800376e:	781b      	ldrb	r3, [r3, #0]
 8003770:	2104      	movs	r1, #4
 8003772:	438b      	bics	r3, r1
 8003774:	4313      	orrs	r3, r2
 8003776:	466a      	mov	r2, sp
 8003778:	7013      	strb	r3, [r2, #0]
 800377a:	2301      	movs	r3, #1
 800377c:	3120      	adds	r1, #32
 800377e:	0028      	movs	r0, r5
 8003780:	f7ff fd08 	bl	8003194 <lis3dh_reg_write>
 8003784:	2800      	cmp	r0, #0
 8003786:	d000      	beq.n	800378a <lis3dh_set_int_event_config+0x1d2>
 8003788:	e789      	b.n	800369e <lis3dh_set_int_event_config+0xe6>
 800378a:	e7eb      	b.n	8003764 <lis3dh_set_int_event_config+0x1ac>
 800378c:	2301      	movs	r3, #1
 800378e:	466a      	mov	r2, sp
 8003790:	2124      	movs	r1, #36	@ 0x24
 8003792:	0028      	movs	r0, r5
 8003794:	f7ff fcb6 	bl	8003104 <lis3dh_reg_read>
 8003798:	2800      	cmp	r0, #0
 800379a:	d101      	bne.n	80037a0 <lis3dh_set_int_event_config+0x1e8>
 800379c:	2000      	movs	r0, #0
 800379e:	e77e      	b.n	800369e <lis3dh_set_int_event_config+0xe6>
 80037a0:	7a23      	ldrb	r3, [r4, #8]
 80037a2:	2201      	movs	r2, #1
 80037a4:	401a      	ands	r2, r3
 80037a6:	0052      	lsls	r2, r2, #1
 80037a8:	466b      	mov	r3, sp
 80037aa:	781b      	ldrb	r3, [r3, #0]
 80037ac:	2102      	movs	r1, #2
 80037ae:	438b      	bics	r3, r1
 80037b0:	4313      	orrs	r3, r2
 80037b2:	466a      	mov	r2, sp
 80037b4:	7013      	strb	r3, [r2, #0]
 80037b6:	2301      	movs	r3, #1
 80037b8:	3122      	adds	r1, #34	@ 0x22
 80037ba:	0028      	movs	r0, r5
 80037bc:	f7ff fcea 	bl	8003194 <lis3dh_reg_write>
 80037c0:	2800      	cmp	r0, #0
 80037c2:	d0eb      	beq.n	800379c <lis3dh_set_int_event_config+0x1e4>
 80037c4:	2301      	movs	r3, #1
 80037c6:	466a      	mov	r2, sp
 80037c8:	2124      	movs	r1, #36	@ 0x24
 80037ca:	0028      	movs	r0, r5
 80037cc:	f7ff fc9a 	bl	8003104 <lis3dh_reg_read>
 80037d0:	2800      	cmp	r0, #0
 80037d2:	d101      	bne.n	80037d8 <lis3dh_set_int_event_config+0x220>
 80037d4:	2000      	movs	r0, #0
 80037d6:	e762      	b.n	800369e <lis3dh_set_int_event_config+0xe6>
 80037d8:	466b      	mov	r3, sp
 80037da:	781b      	ldrb	r3, [r3, #0]
 80037dc:	2201      	movs	r2, #1
 80037de:	4393      	bics	r3, r2
 80037e0:	464a      	mov	r2, r9
 80037e2:	4313      	orrs	r3, r2
 80037e4:	466a      	mov	r2, sp
 80037e6:	7013      	strb	r3, [r2, #0]
 80037e8:	2301      	movs	r3, #1
 80037ea:	2124      	movs	r1, #36	@ 0x24
 80037ec:	0028      	movs	r0, r5
 80037ee:	f7ff fcd1 	bl	8003194 <lis3dh_reg_write>
 80037f2:	2800      	cmp	r0, #0
 80037f4:	d000      	beq.n	80037f8 <lis3dh_set_int_event_config+0x240>
 80037f6:	e752      	b.n	800369e <lis3dh_set_int_event_config+0xe6>
 80037f8:	e7ec      	b.n	80037d4 <lis3dh_set_int_event_config+0x21c>
 80037fa:	2000      	movs	r0, #0
 80037fc:	e74f      	b.n	800369e <lis3dh_set_int_event_config+0xe6>
 80037fe:	2000      	movs	r0, #0
 8003800:	e74d      	b.n	800369e <lis3dh_set_int_event_config+0xe6>
 8003802:	46c0      	nop			@ (mov r8, r8)
 8003804:	080053dc 	.word	0x080053dc

08003808 <lis3dh_config_hpf>:
 8003808:	b5f0      	push	{r4, r5, r6, r7, lr}
 800380a:	46ce      	mov	lr, r9
 800380c:	4647      	mov	r7, r8
 800380e:	b580      	push	{r7, lr}
 8003810:	b083      	sub	sp, #12
 8003812:	0004      	movs	r4, r0
 8003814:	0016      	movs	r6, r2
 8003816:	aa0a      	add	r2, sp, #40	@ 0x28
 8003818:	7812      	ldrb	r2, [r2, #0]
 800381a:	4691      	mov	r9, r2
 800381c:	aa0b      	add	r2, sp, #44	@ 0x2c
 800381e:	7817      	ldrb	r7, [r2, #0]
 8003820:	aa0c      	add	r2, sp, #48	@ 0x30
 8003822:	7815      	ldrb	r5, [r2, #0]
 8003824:	2800      	cmp	r0, #0
 8003826:	d043      	beq.n	80038b0 <lis3dh_config_hpf+0xa8>
 8003828:	2200      	movs	r2, #0
 800382a:	6002      	str	r2, [r0, #0]
 800382c:	aa01      	add	r2, sp, #4
 800382e:	0189      	lsls	r1, r1, #6
 8003830:	468c      	mov	ip, r1
 8003832:	7811      	ldrb	r1, [r2, #0]
 8003834:	4688      	mov	r8, r1
 8003836:	213f      	movs	r1, #63	@ 0x3f
 8003838:	4640      	mov	r0, r8
 800383a:	4001      	ands	r1, r0
 800383c:	4660      	mov	r0, ip
 800383e:	4301      	orrs	r1, r0
 8003840:	7011      	strb	r1, [r2, #0]
 8003842:	2103      	movs	r1, #3
 8003844:	400e      	ands	r6, r1
 8003846:	0136      	lsls	r6, r6, #4
 8003848:	7811      	ldrb	r1, [r2, #0]
 800384a:	2030      	movs	r0, #48	@ 0x30
 800384c:	4381      	bics	r1, r0
 800384e:	4331      	orrs	r1, r6
 8003850:	7011      	strb	r1, [r2, #0]
 8003852:	2101      	movs	r1, #1
 8003854:	400b      	ands	r3, r1
 8003856:	00db      	lsls	r3, r3, #3
 8003858:	7816      	ldrb	r6, [r2, #0]
 800385a:	3828      	subs	r0, #40	@ 0x28
 800385c:	4386      	bics	r6, r0
 800385e:	4333      	orrs	r3, r6
 8003860:	7013      	strb	r3, [r2, #0]
 8003862:	4648      	mov	r0, r9
 8003864:	4008      	ands	r0, r1
 8003866:	0080      	lsls	r0, r0, #2
 8003868:	b2db      	uxtb	r3, r3
 800386a:	2604      	movs	r6, #4
 800386c:	43b3      	bics	r3, r6
 800386e:	4303      	orrs	r3, r0
 8003870:	7013      	strb	r3, [r2, #0]
 8003872:	400f      	ands	r7, r1
 8003874:	b2db      	uxtb	r3, r3
 8003876:	2001      	movs	r0, #1
 8003878:	4383      	bics	r3, r0
 800387a:	433b      	orrs	r3, r7
 800387c:	7013      	strb	r3, [r2, #0]
 800387e:	4029      	ands	r1, r5
 8003880:	0049      	lsls	r1, r1, #1
 8003882:	b2db      	uxtb	r3, r3
 8003884:	3001      	adds	r0, #1
 8003886:	4383      	bics	r3, r0
 8003888:	430b      	orrs	r3, r1
 800388a:	7013      	strb	r3, [r2, #0]
 800388c:	2301      	movs	r3, #1
 800388e:	2121      	movs	r1, #33	@ 0x21
 8003890:	0020      	movs	r0, r4
 8003892:	f7ff fc7f 	bl	8003194 <lis3dh_reg_write>
 8003896:	2800      	cmp	r0, #0
 8003898:	d004      	beq.n	80038a4 <lis3dh_config_hpf+0x9c>
 800389a:	b003      	add	sp, #12
 800389c:	bcc0      	pop	{r6, r7}
 800389e:	46b9      	mov	r9, r7
 80038a0:	46b0      	mov	r8, r6
 80038a2:	bdf0      	pop	{r4, r5, r6, r7, pc}
 80038a4:	6822      	ldr	r2, [r4, #0]
 80038a6:	2390      	movs	r3, #144	@ 0x90
 80038a8:	011b      	lsls	r3, r3, #4
 80038aa:	4313      	orrs	r3, r2
 80038ac:	6023      	str	r3, [r4, #0]
 80038ae:	e7f4      	b.n	800389a <lis3dh_config_hpf+0x92>
 80038b0:	2000      	movs	r0, #0
 80038b2:	e7f2      	b.n	800389a <lis3dh_config_hpf+0x92>

080038b4 <lis3dh_powerdown>:
 80038b4:	b500      	push	{lr}
 80038b6:	b083      	sub	sp, #12
 80038b8:	4b0b      	ldr	r3, [pc, #44]	@ (80038e8 <lis3dh_powerdown+0x34>)
 80038ba:	681b      	ldr	r3, [r3, #0]
 80038bc:	2b00      	cmp	r3, #0
 80038be:	d00a      	beq.n	80038d6 <lis3dh_powerdown+0x22>
 80038c0:	4b09      	ldr	r3, [pc, #36]	@ (80038e8 <lis3dh_powerdown+0x34>)
 80038c2:	6818      	ldr	r0, [r3, #0]
 80038c4:	2300      	movs	r3, #0
 80038c6:	9301      	str	r3, [sp, #4]
 80038c8:	9300      	str	r3, [sp, #0]
 80038ca:	2200      	movs	r2, #0
 80038cc:	2100      	movs	r1, #0
 80038ce:	f7ff fd27 	bl	8003320 <lis3dh_set_mode>
 80038d2:	b003      	add	sp, #12
 80038d4:	bd00      	pop	{pc}
 80038d6:	2200      	movs	r2, #0
 80038d8:	2132      	movs	r1, #50	@ 0x32
 80038da:	2000      	movs	r0, #0
 80038dc:	f7ff fcac 	bl	8003238 <lis3dh_init_sensor>
 80038e0:	4b01      	ldr	r3, [pc, #4]	@ (80038e8 <lis3dh_powerdown+0x34>)
 80038e2:	6018      	str	r0, [r3, #0]
 80038e4:	e7ec      	b.n	80038c0 <lis3dh_powerdown+0xc>
 80038e6:	46c0      	nop			@ (mov r8, r8)
 80038e8:	20000494 	.word	0x20000494

080038ec <lis3dh_get_device>:
 80038ec:	4b01      	ldr	r3, [pc, #4]	@ (80038f4 <lis3dh_get_device+0x8>)
 80038ee:	6818      	ldr	r0, [r3, #0]
 80038f0:	4770      	bx	lr
 80038f2:	46c0      	nop			@ (mov r8, r8)
 80038f4:	20000494 	.word	0x20000494

080038f8 <chan_to_deca>:
 80038f8:	2802      	cmp	r0, #2
 80038fa:	d003      	beq.n	8003904 <chan_to_deca+0xc>
 80038fc:	2805      	cmp	r0, #5
 80038fe:	d001      	beq.n	8003904 <chan_to_deca+0xc>
 8003900:	2001      	movs	r0, #1
 8003902:	4240      	negs	r0, r0
 8003904:	4770      	bx	lr

08003906 <deca_to_chan>:
 8003906:	b510      	push	{r4, lr}
 8003908:	f7ff fff6 	bl	80038f8 <chan_to_deca>
 800390c:	bd10      	pop	{r4, pc}
	...

08003910 <bitrate_to_deca>:
 8003910:	4b08      	ldr	r3, [pc, #32]	@ (8003934 <bitrate_to_deca+0x24>)
 8003912:	4298      	cmp	r0, r3
 8003914:	d006      	beq.n	8003924 <bitrate_to_deca+0x14>
 8003916:	4b08      	ldr	r3, [pc, #32]	@ (8003938 <bitrate_to_deca+0x28>)
 8003918:	4298      	cmp	r0, r3
 800391a:	d005      	beq.n	8003928 <bitrate_to_deca+0x18>
 800391c:	286e      	cmp	r0, #110	@ 0x6e
 800391e:	d105      	bne.n	800392c <bitrate_to_deca+0x1c>
 8003920:	2000      	movs	r0, #0
 8003922:	e002      	b.n	800392a <bitrate_to_deca+0x1a>
 8003924:	2001      	movs	r0, #1
 8003926:	e000      	b.n	800392a <bitrate_to_deca+0x1a>
 8003928:	2002      	movs	r0, #2
 800392a:	4770      	bx	lr
 800392c:	2001      	movs	r0, #1
 800392e:	4240      	negs	r0, r0
 8003930:	e7fb      	b.n	800392a <bitrate_to_deca+0x1a>
 8003932:	46c0      	nop			@ (mov r8, r8)
 8003934:	00000352 	.word	0x00000352
 8003938:	00001a9a 	.word	0x00001a9a

0800393c <deca_to_bitrate>:
 800393c:	2801      	cmp	r0, #1
 800393e:	d005      	beq.n	800394c <deca_to_bitrate+0x10>
 8003940:	2802      	cmp	r0, #2
 8003942:	d005      	beq.n	8003950 <deca_to_bitrate+0x14>
 8003944:	2800      	cmp	r0, #0
 8003946:	d105      	bne.n	8003954 <deca_to_bitrate+0x18>
 8003948:	306e      	adds	r0, #110	@ 0x6e
 800394a:	e002      	b.n	8003952 <deca_to_bitrate+0x16>
 800394c:	4803      	ldr	r0, [pc, #12]	@ (800395c <deca_to_bitrate+0x20>)
 800394e:	e000      	b.n	8003952 <deca_to_bitrate+0x16>
 8003950:	4803      	ldr	r0, [pc, #12]	@ (8003960 <deca_to_bitrate+0x24>)
 8003952:	4770      	bx	lr
 8003954:	2001      	movs	r0, #1
 8003956:	4240      	negs	r0, r0
 8003958:	e7fb      	b.n	8003952 <deca_to_bitrate+0x16>
 800395a:	46c0      	nop			@ (mov r8, r8)
 800395c:	00000352 	.word	0x00000352
 8003960:	00001a9a 	.word	0x00001a9a

08003964 <prf_to_deca>:
 8003964:	2810      	cmp	r0, #16
 8003966:	d003      	beq.n	8003970 <prf_to_deca+0xc>
 8003968:	2840      	cmp	r0, #64	@ 0x40
 800396a:	d103      	bne.n	8003974 <prf_to_deca+0x10>
 800396c:	383e      	subs	r0, #62	@ 0x3e
 800396e:	e000      	b.n	8003972 <prf_to_deca+0xe>
 8003970:	2001      	movs	r0, #1
 8003972:	4770      	bx	lr
 8003974:	2001      	movs	r0, #1
 8003976:	4240      	negs	r0, r0
 8003978:	e7fb      	b.n	8003972 <prf_to_deca+0xe>

0800397a <deca_to_prf>:
 800397a:	2801      	cmp	r0, #1
 800397c:	d003      	beq.n	8003986 <deca_to_prf+0xc>
 800397e:	2802      	cmp	r0, #2
 8003980:	d103      	bne.n	800398a <deca_to_prf+0x10>
 8003982:	303e      	adds	r0, #62	@ 0x3e
 8003984:	e000      	b.n	8003988 <deca_to_prf+0xe>
 8003986:	2010      	movs	r0, #16
 8003988:	4770      	bx	lr
 800398a:	2001      	movs	r0, #1
 800398c:	4240      	negs	r0, r0
 800398e:	e7fb      	b.n	8003988 <deca_to_prf+0xe>

08003990 <pac_to_deca>:
 8003990:	2820      	cmp	r0, #32
 8003992:	d00a      	beq.n	80039aa <pac_to_deca+0x1a>
 8003994:	dc05      	bgt.n	80039a2 <pac_to_deca+0x12>
 8003996:	2808      	cmp	r0, #8
 8003998:	d009      	beq.n	80039ae <pac_to_deca+0x1e>
 800399a:	2810      	cmp	r0, #16
 800399c:	d109      	bne.n	80039b2 <pac_to_deca+0x22>
 800399e:	380f      	subs	r0, #15
 80039a0:	e004      	b.n	80039ac <pac_to_deca+0x1c>
 80039a2:	2840      	cmp	r0, #64	@ 0x40
 80039a4:	d108      	bne.n	80039b8 <pac_to_deca+0x28>
 80039a6:	383d      	subs	r0, #61	@ 0x3d
 80039a8:	e000      	b.n	80039ac <pac_to_deca+0x1c>
 80039aa:	2002      	movs	r0, #2
 80039ac:	4770      	bx	lr
 80039ae:	2000      	movs	r0, #0
 80039b0:	e7fc      	b.n	80039ac <pac_to_deca+0x1c>
 80039b2:	2001      	movs	r0, #1
 80039b4:	4240      	negs	r0, r0
 80039b6:	e7f9      	b.n	80039ac <pac_to_deca+0x1c>
 80039b8:	2001      	movs	r0, #1
 80039ba:	4240      	negs	r0, r0
 80039bc:	e7f6      	b.n	80039ac <pac_to_deca+0x1c>

080039be <deca_to_pac>:
 80039be:	2802      	cmp	r0, #2
 80039c0:	d00a      	beq.n	80039d8 <deca_to_pac+0x1a>
 80039c2:	dc05      	bgt.n	80039d0 <deca_to_pac+0x12>
 80039c4:	2800      	cmp	r0, #0
 80039c6:	d009      	beq.n	80039dc <deca_to_pac+0x1e>
 80039c8:	2801      	cmp	r0, #1
 80039ca:	d109      	bne.n	80039e0 <deca_to_pac+0x22>
 80039cc:	300f      	adds	r0, #15
 80039ce:	e004      	b.n	80039da <deca_to_pac+0x1c>
 80039d0:	2803      	cmp	r0, #3
 80039d2:	d108      	bne.n	80039e6 <deca_to_pac+0x28>
 80039d4:	303d      	adds	r0, #61	@ 0x3d
 80039d6:	e000      	b.n	80039da <deca_to_pac+0x1c>
 80039d8:	2020      	movs	r0, #32
 80039da:	4770      	bx	lr
 80039dc:	2008      	movs	r0, #8
 80039de:	e7fc      	b.n	80039da <deca_to_pac+0x1c>
 80039e0:	2001      	movs	r0, #1
 80039e2:	4240      	negs	r0, r0
 80039e4:	e7f9      	b.n	80039da <deca_to_pac+0x1c>
 80039e6:	2001      	movs	r0, #1
 80039e8:	4240      	negs	r0, r0
 80039ea:	e7f6      	b.n	80039da <deca_to_pac+0x1c>

080039ec <plen_to_deca>:
 80039ec:	2380      	movs	r3, #128	@ 0x80
 80039ee:	009b      	lsls	r3, r3, #2
 80039f0:	4298      	cmp	r0, r3
 80039f2:	d018      	beq.n	8003a26 <plen_to_deca+0x3a>
 80039f4:	dc09      	bgt.n	8003a0a <plen_to_deca+0x1e>
 80039f6:	2880      	cmp	r0, #128	@ 0x80
 80039f8:	d017      	beq.n	8003a2a <plen_to_deca+0x3e>
 80039fa:	3b01      	subs	r3, #1
 80039fc:	3bff      	subs	r3, #255	@ 0xff
 80039fe:	4298      	cmp	r0, r3
 8003a00:	d015      	beq.n	8003a2e <plen_to_deca+0x42>
 8003a02:	2840      	cmp	r0, #64	@ 0x40
 8003a04:	d115      	bne.n	8003a32 <plen_to_deca+0x46>
 8003a06:	383c      	subs	r0, #60	@ 0x3c
 8003a08:	4770      	bx	lr
 8003a0a:	23c0      	movs	r3, #192	@ 0xc0
 8003a0c:	00db      	lsls	r3, r3, #3
 8003a0e:	4298      	cmp	r0, r3
 8003a10:	d012      	beq.n	8003a38 <plen_to_deca+0x4c>
 8003a12:	2380      	movs	r3, #128	@ 0x80
 8003a14:	011b      	lsls	r3, r3, #4
 8003a16:	4298      	cmp	r0, r3
 8003a18:	d010      	beq.n	8003a3c <plen_to_deca+0x50>
 8003a1a:	2380      	movs	r3, #128	@ 0x80
 8003a1c:	00db      	lsls	r3, r3, #3
 8003a1e:	4298      	cmp	r0, r3
 8003a20:	d10e      	bne.n	8003a40 <plen_to_deca+0x54>
 8003a22:	2008      	movs	r0, #8
 8003a24:	e7f0      	b.n	8003a08 <plen_to_deca+0x1c>
 8003a26:	2034      	movs	r0, #52	@ 0x34
 8003a28:	e7ee      	b.n	8003a08 <plen_to_deca+0x1c>
 8003a2a:	2014      	movs	r0, #20
 8003a2c:	e7ec      	b.n	8003a08 <plen_to_deca+0x1c>
 8003a2e:	2024      	movs	r0, #36	@ 0x24
 8003a30:	e7ea      	b.n	8003a08 <plen_to_deca+0x1c>
 8003a32:	2001      	movs	r0, #1
 8003a34:	4240      	negs	r0, r0
 8003a36:	e7e7      	b.n	8003a08 <plen_to_deca+0x1c>
 8003a38:	2018      	movs	r0, #24
 8003a3a:	e7e5      	b.n	8003a08 <plen_to_deca+0x1c>
 8003a3c:	2028      	movs	r0, #40	@ 0x28
 8003a3e:	e7e3      	b.n	8003a08 <plen_to_deca+0x1c>
 8003a40:	2001      	movs	r0, #1
 8003a42:	4240      	negs	r0, r0
 8003a44:	e7e0      	b.n	8003a08 <plen_to_deca+0x1c>
	...

08003a48 <deca_to_plen>:
 8003a48:	3804      	subs	r0, #4
 8003a4a:	2830      	cmp	r0, #48	@ 0x30
 8003a4c:	d813      	bhi.n	8003a76 <deca_to_plen+0x2e>
 8003a4e:	0080      	lsls	r0, r0, #2
 8003a50:	4b0c      	ldr	r3, [pc, #48]	@ (8003a84 <deca_to_plen+0x3c>)
 8003a52:	581b      	ldr	r3, [r3, r0]
 8003a54:	469f      	mov	pc, r3
 8003a56:	2080      	movs	r0, #128	@ 0x80
 8003a58:	0100      	lsls	r0, r0, #4
 8003a5a:	e001      	b.n	8003a60 <deca_to_plen+0x18>
 8003a5c:	2080      	movs	r0, #128	@ 0x80
 8003a5e:	00c0      	lsls	r0, r0, #3
 8003a60:	4770      	bx	lr
 8003a62:	2080      	movs	r0, #128	@ 0x80
 8003a64:	0080      	lsls	r0, r0, #2
 8003a66:	e7fb      	b.n	8003a60 <deca_to_plen+0x18>
 8003a68:	2080      	movs	r0, #128	@ 0x80
 8003a6a:	0040      	lsls	r0, r0, #1
 8003a6c:	e7f8      	b.n	8003a60 <deca_to_plen+0x18>
 8003a6e:	2080      	movs	r0, #128	@ 0x80
 8003a70:	e7f6      	b.n	8003a60 <deca_to_plen+0x18>
 8003a72:	2040      	movs	r0, #64	@ 0x40
 8003a74:	e7f4      	b.n	8003a60 <deca_to_plen+0x18>
 8003a76:	2001      	movs	r0, #1
 8003a78:	4240      	negs	r0, r0
 8003a7a:	e7f1      	b.n	8003a60 <deca_to_plen+0x18>
 8003a7c:	20c0      	movs	r0, #192	@ 0xc0
 8003a7e:	00c0      	lsls	r0, r0, #3
 8003a80:	e7ee      	b.n	8003a60 <deca_to_plen+0x18>
 8003a82:	46c0      	nop			@ (mov r8, r8)
 8003a84:	080053f4 	.word	0x080053f4

08003a88 <tvc_otp_read_txcfgref>:
 8003a88:	b530      	push	{r4, r5, lr}
 8003a8a:	b087      	sub	sp, #28
 8003a8c:	0005      	movs	r5, r0
 8003a8e:	000c      	movs	r4, r1
 8003a90:	2902      	cmp	r1, #2
 8003a92:	d003      	beq.n	8003a9c <tvc_otp_read_txcfgref+0x14>
 8003a94:	2905      	cmp	r1, #5
 8003a96:	d005      	beq.n	8003aa4 <tvc_otp_read_txcfgref+0x1c>
 8003a98:	2000      	movs	r0, #0
 8003a9a:	e056      	b.n	8003b4a <tvc_otp_read_txcfgref+0xc2>
 8003a9c:	2902      	cmp	r1, #2
 8003a9e:	d156      	bne.n	8003b4e <tvc_otp_read_txcfgref+0xc6>
 8003aa0:	2013      	movs	r0, #19
 8003aa2:	e000      	b.n	8003aa6 <tvc_otp_read_txcfgref+0x1e>
 8003aa4:	2019      	movs	r0, #25
 8003aa6:	2201      	movs	r2, #1
 8003aa8:	a901      	add	r1, sp, #4
 8003aaa:	f7fe ff6d 	bl	8002988 <dwt_otpread>
 8003aae:	2201      	movs	r2, #1
 8003ab0:	a902      	add	r1, sp, #8
 8003ab2:	201b      	movs	r0, #27
 8003ab4:	f7fe ff68 	bl	8002988 <dwt_otpread>
 8003ab8:	2201      	movs	r2, #1
 8003aba:	a903      	add	r1, sp, #12
 8003abc:	201e      	movs	r0, #30
 8003abe:	f7fe ff63 	bl	8002988 <dwt_otpread>
 8003ac2:	2201      	movs	r2, #1
 8003ac4:	a904      	add	r1, sp, #16
 8003ac6:	201d      	movs	r0, #29
 8003ac8:	f7fe ff5e 	bl	8002988 <dwt_otpread>
 8003acc:	2201      	movs	r2, #1
 8003ace:	a905      	add	r1, sp, #20
 8003ad0:	201c      	movs	r0, #28
 8003ad2:	f7fe ff59 	bl	8002988 <dwt_otpread>
 8003ad6:	9a01      	ldr	r2, [sp, #4]
 8003ad8:	1e53      	subs	r3, r2, #1
 8003ada:	3303      	adds	r3, #3
 8003adc:	d827      	bhi.n	8003b2e <tvc_otp_read_txcfgref+0xa6>
 8003ade:	9b02      	ldr	r3, [sp, #8]
 8003ae0:	3b01      	subs	r3, #1
 8003ae2:	3303      	adds	r3, #3
 8003ae4:	d823      	bhi.n	8003b2e <tvc_otp_read_txcfgref+0xa6>
 8003ae6:	9b03      	ldr	r3, [sp, #12]
 8003ae8:	3b01      	subs	r3, #1
 8003aea:	3303      	adds	r3, #3
 8003aec:	d81f      	bhi.n	8003b2e <tvc_otp_read_txcfgref+0xa6>
 8003aee:	9b04      	ldr	r3, [sp, #16]
 8003af0:	3b01      	subs	r3, #1
 8003af2:	3303      	adds	r3, #3
 8003af4:	d81b      	bhi.n	8003b2e <tvc_otp_read_txcfgref+0xa6>
 8003af6:	9b05      	ldr	r3, [sp, #20]
 8003af8:	3b01      	subs	r3, #1
 8003afa:	3303      	adds	r3, #3
 8003afc:	d817      	bhi.n	8003b2e <tvc_otp_read_txcfgref+0xa6>
 8003afe:	606a      	str	r2, [r5, #4]
 8003b00:	2c05      	cmp	r4, #5
 8003b02:	d00c      	beq.n	8003b1e <tvc_otp_read_txcfgref+0x96>
 8003b04:	ab01      	add	r3, sp, #4
 8003b06:	88da      	ldrh	r2, [r3, #6]
 8003b08:	816a      	strh	r2, [r5, #10]
 8003b0a:	7ada      	ldrb	r2, [r3, #11]
 8003b0c:	702a      	strb	r2, [r5, #0]
 8003b0e:	8a5b      	ldrh	r3, [r3, #18]
 8003b10:	81eb      	strh	r3, [r5, #14]
 8003b12:	9b04      	ldr	r3, [sp, #16]
 8003b14:	722b      	strb	r3, [r5, #8]
 8003b16:	0a1b      	lsrs	r3, r3, #8
 8003b18:	732b      	strb	r3, [r5, #12]
 8003b1a:	2001      	movs	r0, #1
 8003b1c:	e015      	b.n	8003b4a <tvc_otp_read_txcfgref+0xc2>
 8003b1e:	ab01      	add	r3, sp, #4
 8003b20:	9a02      	ldr	r2, [sp, #8]
 8003b22:	816a      	strh	r2, [r5, #10]
 8003b24:	895a      	ldrh	r2, [r3, #10]
 8003b26:	702a      	strb	r2, [r5, #0]
 8003b28:	9b05      	ldr	r3, [sp, #20]
 8003b2a:	81eb      	strh	r3, [r5, #14]
 8003b2c:	e7f1      	b.n	8003b12 <tvc_otp_read_txcfgref+0x8a>
 8003b2e:	4a09      	ldr	r2, [pc, #36]	@ (8003b54 <tvc_otp_read_txcfgref+0xcc>)
 8003b30:	0124      	lsls	r4, r4, #4
 8003b32:	1913      	adds	r3, r2, r4
 8003b34:	6859      	ldr	r1, [r3, #4]
 8003b36:	6069      	str	r1, [r5, #4]
 8003b38:	8959      	ldrh	r1, [r3, #10]
 8003b3a:	8169      	strh	r1, [r5, #10]
 8003b3c:	7a19      	ldrb	r1, [r3, #8]
 8003b3e:	7229      	strb	r1, [r5, #8]
 8003b40:	5ca2      	ldrb	r2, [r4, r2]
 8003b42:	702a      	strb	r2, [r5, #0]
 8003b44:	7b1b      	ldrb	r3, [r3, #12]
 8003b46:	732b      	strb	r3, [r5, #12]
 8003b48:	2001      	movs	r0, #1
 8003b4a:	b007      	add	sp, #28
 8003b4c:	bd30      	pop	{r4, r5, pc}
 8003b4e:	2000      	movs	r0, #0
 8003b50:	e7fb      	b.n	8003b4a <tvc_otp_read_txcfgref+0xc2>
 8003b52:	46c0      	nop			@ (mov r8, r8)
 8003b54:	080054b8 	.word	0x080054b8

08003b58 <malloc>:
 8003b58:	b510      	push	{r4, lr}
 8003b5a:	4b03      	ldr	r3, [pc, #12]	@ (8003b68 <malloc+0x10>)
 8003b5c:	0001      	movs	r1, r0
 8003b5e:	6818      	ldr	r0, [r3, #0]
 8003b60:	f000 f830 	bl	8003bc4 <_malloc_r>
 8003b64:	bd10      	pop	{r4, pc}
 8003b66:	46c0      	nop			@ (mov r8, r8)
 8003b68:	20000014 	.word	0x20000014

08003b6c <free>:
 8003b6c:	b510      	push	{r4, lr}
 8003b6e:	4b03      	ldr	r3, [pc, #12]	@ (8003b7c <free+0x10>)
 8003b70:	0001      	movs	r1, r0
 8003b72:	6818      	ldr	r0, [r3, #0]
 8003b74:	f000 f95c 	bl	8003e30 <_free_r>
 8003b78:	bd10      	pop	{r4, pc}
 8003b7a:	46c0      	nop			@ (mov r8, r8)
 8003b7c:	20000014 	.word	0x20000014

08003b80 <sbrk_aligned>:
 8003b80:	b570      	push	{r4, r5, r6, lr}
 8003b82:	4e0f      	ldr	r6, [pc, #60]	@ (8003bc0 <sbrk_aligned+0x40>)
 8003b84:	000d      	movs	r5, r1
 8003b86:	6831      	ldr	r1, [r6, #0]
 8003b88:	0004      	movs	r4, r0
 8003b8a:	2900      	cmp	r1, #0
 8003b8c:	d102      	bne.n	8003b94 <sbrk_aligned+0x14>
 8003b8e:	f000 f8ff 	bl	8003d90 <_sbrk_r>
 8003b92:	6030      	str	r0, [r6, #0]
 8003b94:	0029      	movs	r1, r5
 8003b96:	0020      	movs	r0, r4
 8003b98:	f000 f8fa 	bl	8003d90 <_sbrk_r>
 8003b9c:	1c43      	adds	r3, r0, #1
 8003b9e:	d103      	bne.n	8003ba8 <sbrk_aligned+0x28>
 8003ba0:	2501      	movs	r5, #1
 8003ba2:	426d      	negs	r5, r5
 8003ba4:	0028      	movs	r0, r5
 8003ba6:	bd70      	pop	{r4, r5, r6, pc}
 8003ba8:	2303      	movs	r3, #3
 8003baa:	1cc5      	adds	r5, r0, #3
 8003bac:	439d      	bics	r5, r3
 8003bae:	42a8      	cmp	r0, r5
 8003bb0:	d0f8      	beq.n	8003ba4 <sbrk_aligned+0x24>
 8003bb2:	1a29      	subs	r1, r5, r0
 8003bb4:	0020      	movs	r0, r4
 8003bb6:	f000 f8eb 	bl	8003d90 <_sbrk_r>
 8003bba:	3001      	adds	r0, #1
 8003bbc:	d1f2      	bne.n	8003ba4 <sbrk_aligned+0x24>
 8003bbe:	e7ef      	b.n	8003ba0 <sbrk_aligned+0x20>
 8003bc0:	20000498 	.word	0x20000498

08003bc4 <_malloc_r>:
 8003bc4:	b5f7      	push	{r0, r1, r2, r4, r5, r6, r7, lr}
 8003bc6:	2203      	movs	r2, #3
 8003bc8:	1ccb      	adds	r3, r1, #3
 8003bca:	4393      	bics	r3, r2
 8003bcc:	3308      	adds	r3, #8
 8003bce:	0005      	movs	r5, r0
 8003bd0:	001f      	movs	r7, r3
 8003bd2:	2b0c      	cmp	r3, #12
 8003bd4:	d234      	bcs.n	8003c40 <_malloc_r+0x7c>
 8003bd6:	270c      	movs	r7, #12
 8003bd8:	42b9      	cmp	r1, r7
 8003bda:	d833      	bhi.n	8003c44 <_malloc_r+0x80>
 8003bdc:	0028      	movs	r0, r5
 8003bde:	f000 f871 	bl	8003cc4 <__malloc_lock>
 8003be2:	4e37      	ldr	r6, [pc, #220]	@ (8003cc0 <_malloc_r+0xfc>)
 8003be4:	6833      	ldr	r3, [r6, #0]
 8003be6:	001c      	movs	r4, r3
 8003be8:	2c00      	cmp	r4, #0
 8003bea:	d12f      	bne.n	8003c4c <_malloc_r+0x88>
 8003bec:	0039      	movs	r1, r7
 8003bee:	0028      	movs	r0, r5
 8003bf0:	f7ff ffc6 	bl	8003b80 <sbrk_aligned>
 8003bf4:	0004      	movs	r4, r0
 8003bf6:	1c43      	adds	r3, r0, #1
 8003bf8:	d15f      	bne.n	8003cba <_malloc_r+0xf6>
 8003bfa:	6834      	ldr	r4, [r6, #0]
 8003bfc:	9400      	str	r4, [sp, #0]
 8003bfe:	9b00      	ldr	r3, [sp, #0]
 8003c00:	2b00      	cmp	r3, #0
 8003c02:	d14a      	bne.n	8003c9a <_malloc_r+0xd6>
 8003c04:	2c00      	cmp	r4, #0
 8003c06:	d052      	beq.n	8003cae <_malloc_r+0xea>
 8003c08:	6823      	ldr	r3, [r4, #0]
 8003c0a:	0028      	movs	r0, r5
 8003c0c:	18e3      	adds	r3, r4, r3
 8003c0e:	9900      	ldr	r1, [sp, #0]
 8003c10:	9301      	str	r3, [sp, #4]
 8003c12:	f000 f8bd 	bl	8003d90 <_sbrk_r>
 8003c16:	9b01      	ldr	r3, [sp, #4]
 8003c18:	4283      	cmp	r3, r0
 8003c1a:	d148      	bne.n	8003cae <_malloc_r+0xea>
 8003c1c:	6823      	ldr	r3, [r4, #0]
 8003c1e:	0028      	movs	r0, r5
 8003c20:	1aff      	subs	r7, r7, r3
 8003c22:	0039      	movs	r1, r7
 8003c24:	f7ff ffac 	bl	8003b80 <sbrk_aligned>
 8003c28:	3001      	adds	r0, #1
 8003c2a:	d040      	beq.n	8003cae <_malloc_r+0xea>
 8003c2c:	6823      	ldr	r3, [r4, #0]
 8003c2e:	19db      	adds	r3, r3, r7
 8003c30:	6023      	str	r3, [r4, #0]
 8003c32:	6833      	ldr	r3, [r6, #0]
 8003c34:	685a      	ldr	r2, [r3, #4]
 8003c36:	2a00      	cmp	r2, #0
 8003c38:	d133      	bne.n	8003ca2 <_malloc_r+0xde>
 8003c3a:	9b00      	ldr	r3, [sp, #0]
 8003c3c:	6033      	str	r3, [r6, #0]
 8003c3e:	e019      	b.n	8003c74 <_malloc_r+0xb0>
 8003c40:	2b00      	cmp	r3, #0
 8003c42:	dac9      	bge.n	8003bd8 <_malloc_r+0x14>
 8003c44:	230c      	movs	r3, #12
 8003c46:	602b      	str	r3, [r5, #0]
 8003c48:	2000      	movs	r0, #0
 8003c4a:	bdfe      	pop	{r1, r2, r3, r4, r5, r6, r7, pc}
 8003c4c:	6821      	ldr	r1, [r4, #0]
 8003c4e:	1bc9      	subs	r1, r1, r7
 8003c50:	d420      	bmi.n	8003c94 <_malloc_r+0xd0>
 8003c52:	290b      	cmp	r1, #11
 8003c54:	d90a      	bls.n	8003c6c <_malloc_r+0xa8>
 8003c56:	19e2      	adds	r2, r4, r7
 8003c58:	6027      	str	r7, [r4, #0]
 8003c5a:	42a3      	cmp	r3, r4
 8003c5c:	d104      	bne.n	8003c68 <_malloc_r+0xa4>
 8003c5e:	6032      	str	r2, [r6, #0]
 8003c60:	6863      	ldr	r3, [r4, #4]
 8003c62:	6011      	str	r1, [r2, #0]
 8003c64:	6053      	str	r3, [r2, #4]
 8003c66:	e005      	b.n	8003c74 <_malloc_r+0xb0>
 8003c68:	605a      	str	r2, [r3, #4]
 8003c6a:	e7f9      	b.n	8003c60 <_malloc_r+0x9c>
 8003c6c:	6862      	ldr	r2, [r4, #4]
 8003c6e:	42a3      	cmp	r3, r4
 8003c70:	d10e      	bne.n	8003c90 <_malloc_r+0xcc>
 8003c72:	6032      	str	r2, [r6, #0]
 8003c74:	0028      	movs	r0, r5
 8003c76:	f000 f82d 	bl	8003cd4 <__malloc_unlock>
 8003c7a:	0020      	movs	r0, r4
 8003c7c:	2207      	movs	r2, #7
 8003c7e:	300b      	adds	r0, #11
 8003c80:	1d23      	adds	r3, r4, #4
 8003c82:	4390      	bics	r0, r2
 8003c84:	1ac2      	subs	r2, r0, r3
 8003c86:	4298      	cmp	r0, r3
 8003c88:	d0df      	beq.n	8003c4a <_malloc_r+0x86>
 8003c8a:	1a1b      	subs	r3, r3, r0
 8003c8c:	50a3      	str	r3, [r4, r2]
 8003c8e:	e7dc      	b.n	8003c4a <_malloc_r+0x86>
 8003c90:	605a      	str	r2, [r3, #4]
 8003c92:	e7ef      	b.n	8003c74 <_malloc_r+0xb0>
 8003c94:	0023      	movs	r3, r4
 8003c96:	6864      	ldr	r4, [r4, #4]
 8003c98:	e7a6      	b.n	8003be8 <_malloc_r+0x24>
 8003c9a:	9c00      	ldr	r4, [sp, #0]
 8003c9c:	6863      	ldr	r3, [r4, #4]
 8003c9e:	9300      	str	r3, [sp, #0]
 8003ca0:	e7ad      	b.n	8003bfe <_malloc_r+0x3a>
 8003ca2:	001a      	movs	r2, r3
 8003ca4:	685b      	ldr	r3, [r3, #4]
 8003ca6:	42a3      	cmp	r3, r4
 8003ca8:	d1fb      	bne.n	8003ca2 <_malloc_r+0xde>
 8003caa:	2300      	movs	r3, #0
 8003cac:	e7da      	b.n	8003c64 <_malloc_r+0xa0>
 8003cae:	230c      	movs	r3, #12
 8003cb0:	0028      	movs	r0, r5
 8003cb2:	602b      	str	r3, [r5, #0]
 8003cb4:	f000 f80e 	bl	8003cd4 <__malloc_unlock>
 8003cb8:	e7c6      	b.n	8003c48 <_malloc_r+0x84>
 8003cba:	6007      	str	r7, [r0, #0]
 8003cbc:	e7da      	b.n	8003c74 <_malloc_r+0xb0>
 8003cbe:	46c0      	nop			@ (mov r8, r8)
 8003cc0:	2000049c 	.word	0x2000049c

08003cc4 <__malloc_lock>:
 8003cc4:	b510      	push	{r4, lr}
 8003cc6:	4802      	ldr	r0, [pc, #8]	@ (8003cd0 <__malloc_lock+0xc>)
 8003cc8:	f000 f89e 	bl	8003e08 <__retarget_lock_acquire_recursive>
 8003ccc:	bd10      	pop	{r4, pc}
 8003cce:	46c0      	nop			@ (mov r8, r8)
 8003cd0:	200005dc 	.word	0x200005dc

08003cd4 <__malloc_unlock>:
 8003cd4:	b510      	push	{r4, lr}
 8003cd6:	4802      	ldr	r0, [pc, #8]	@ (8003ce0 <__malloc_unlock+0xc>)
 8003cd8:	f000 f897 	bl	8003e0a <__retarget_lock_release_recursive>
 8003cdc:	bd10      	pop	{r4, pc}
 8003cde:	46c0      	nop			@ (mov r8, r8)
 8003ce0:	200005dc 	.word	0x200005dc

08003ce4 <siprintf>:
 8003ce4:	b40e      	push	{r1, r2, r3}
 8003ce6:	b510      	push	{r4, lr}
 8003ce8:	2400      	movs	r4, #0
 8003cea:	490c      	ldr	r1, [pc, #48]	@ (8003d1c <siprintf+0x38>)
 8003cec:	b09d      	sub	sp, #116	@ 0x74
 8003cee:	ab1f      	add	r3, sp, #124	@ 0x7c
 8003cf0:	9002      	str	r0, [sp, #8]
 8003cf2:	9006      	str	r0, [sp, #24]
 8003cf4:	9107      	str	r1, [sp, #28]
 8003cf6:	9104      	str	r1, [sp, #16]
 8003cf8:	4809      	ldr	r0, [pc, #36]	@ (8003d20 <siprintf+0x3c>)
 8003cfa:	490a      	ldr	r1, [pc, #40]	@ (8003d24 <siprintf+0x40>)
 8003cfc:	cb04      	ldmia	r3!, {r2}
 8003cfe:	9105      	str	r1, [sp, #20]
 8003d00:	6800      	ldr	r0, [r0, #0]
 8003d02:	a902      	add	r1, sp, #8
 8003d04:	9301      	str	r3, [sp, #4]
 8003d06:	941b      	str	r4, [sp, #108]	@ 0x6c
 8003d08:	f000 f93c 	bl	8003f84 <_svfiprintf_r>
 8003d0c:	9b02      	ldr	r3, [sp, #8]
 8003d0e:	701c      	strb	r4, [r3, #0]
 8003d10:	b01d      	add	sp, #116	@ 0x74
 8003d12:	bc10      	pop	{r4}
 8003d14:	bc08      	pop	{r3}
 8003d16:	b003      	add	sp, #12
 8003d18:	4718      	bx	r3
 8003d1a:	46c0      	nop			@ (mov r8, r8)
 8003d1c:	7fffffff 	.word	0x7fffffff
 8003d20:	20000014 	.word	0x20000014
 8003d24:	ffff0208 	.word	0xffff0208

08003d28 <siscanf>:
 8003d28:	b40e      	push	{r1, r2, r3}
 8003d2a:	b570      	push	{r4, r5, r6, lr}
 8003d2c:	2381      	movs	r3, #129	@ 0x81
 8003d2e:	b09d      	sub	sp, #116	@ 0x74
 8003d30:	466a      	mov	r2, sp
 8003d32:	2500      	movs	r5, #0
 8003d34:	ac21      	add	r4, sp, #132	@ 0x84
 8003d36:	009b      	lsls	r3, r3, #2
 8003d38:	cc40      	ldmia	r4!, {r6}
 8003d3a:	8293      	strh	r3, [r2, #20]
 8003d3c:	951b      	str	r5, [sp, #108]	@ 0x6c
 8003d3e:	9002      	str	r0, [sp, #8]
 8003d40:	9006      	str	r0, [sp, #24]
 8003d42:	f7fc fa3f 	bl	80001c4 <strlen>
 8003d46:	4b0b      	ldr	r3, [pc, #44]	@ (8003d74 <siscanf+0x4c>)
 8003d48:	466a      	mov	r2, sp
 8003d4a:	930b      	str	r3, [sp, #44]	@ 0x2c
 8003d4c:	2301      	movs	r3, #1
 8003d4e:	9003      	str	r0, [sp, #12]
 8003d50:	9007      	str	r0, [sp, #28]
 8003d52:	4809      	ldr	r0, [pc, #36]	@ (8003d78 <siscanf+0x50>)
 8003d54:	425b      	negs	r3, r3
 8003d56:	82d3      	strh	r3, [r2, #22]
 8003d58:	a902      	add	r1, sp, #8
 8003d5a:	0023      	movs	r3, r4
 8003d5c:	0032      	movs	r2, r6
 8003d5e:	6800      	ldr	r0, [r0, #0]
 8003d60:	950f      	str	r5, [sp, #60]	@ 0x3c
 8003d62:	9514      	str	r5, [sp, #80]	@ 0x50
 8003d64:	9401      	str	r4, [sp, #4]
 8003d66:	f000 fa67 	bl	8004238 <__ssvfiscanf_r>
 8003d6a:	b01d      	add	sp, #116	@ 0x74
 8003d6c:	bc70      	pop	{r4, r5, r6}
 8003d6e:	bc08      	pop	{r3}
 8003d70:	b003      	add	sp, #12
 8003d72:	4718      	bx	r3
 8003d74:	08003d7d 	.word	0x08003d7d
 8003d78:	20000014 	.word	0x20000014

08003d7c <__seofread>:
 8003d7c:	2000      	movs	r0, #0
 8003d7e:	4770      	bx	lr

08003d80 <memset>:
 8003d80:	0003      	movs	r3, r0
 8003d82:	1882      	adds	r2, r0, r2
 8003d84:	4293      	cmp	r3, r2
 8003d86:	d100      	bne.n	8003d8a <memset+0xa>
 8003d88:	4770      	bx	lr
 8003d8a:	7019      	strb	r1, [r3, #0]
 8003d8c:	3301      	adds	r3, #1
 8003d8e:	e7f9      	b.n	8003d84 <memset+0x4>

08003d90 <_sbrk_r>:
 8003d90:	2300      	movs	r3, #0
 8003d92:	b570      	push	{r4, r5, r6, lr}
 8003d94:	4d06      	ldr	r5, [pc, #24]	@ (8003db0 <_sbrk_r+0x20>)
 8003d96:	0004      	movs	r4, r0
 8003d98:	0008      	movs	r0, r1
 8003d9a:	602b      	str	r3, [r5, #0]
 8003d9c:	f7fc ff6a 	bl	8000c74 <_sbrk>
 8003da0:	1c43      	adds	r3, r0, #1
 8003da2:	d103      	bne.n	8003dac <_sbrk_r+0x1c>
 8003da4:	682b      	ldr	r3, [r5, #0]
 8003da6:	2b00      	cmp	r3, #0
 8003da8:	d000      	beq.n	8003dac <_sbrk_r+0x1c>
 8003daa:	6023      	str	r3, [r4, #0]
 8003dac:	bd70      	pop	{r4, r5, r6, pc}
 8003dae:	46c0      	nop			@ (mov r8, r8)
 8003db0:	200005d8 	.word	0x200005d8

08003db4 <__errno>:
 8003db4:	4b01      	ldr	r3, [pc, #4]	@ (8003dbc <__errno+0x8>)
 8003db6:	6818      	ldr	r0, [r3, #0]
 8003db8:	4770      	bx	lr
 8003dba:	46c0      	nop			@ (mov r8, r8)
 8003dbc:	20000014 	.word	0x20000014

08003dc0 <__libc_init_array>:
 8003dc0:	b570      	push	{r4, r5, r6, lr}
 8003dc2:	2600      	movs	r6, #0
 8003dc4:	4c0c      	ldr	r4, [pc, #48]	@ (8003df8 <__libc_init_array+0x38>)
 8003dc6:	4d0d      	ldr	r5, [pc, #52]	@ (8003dfc <__libc_init_array+0x3c>)
 8003dc8:	1b64      	subs	r4, r4, r5
 8003dca:	10a4      	asrs	r4, r4, #2
 8003dcc:	42a6      	cmp	r6, r4
 8003dce:	d109      	bne.n	8003de4 <__libc_init_array+0x24>
 8003dd0:	2600      	movs	r6, #0
 8003dd2:	f001 f853 	bl	8004e7c <_init>
 8003dd6:	4c0a      	ldr	r4, [pc, #40]	@ (8003e00 <__libc_init_array+0x40>)
 8003dd8:	4d0a      	ldr	r5, [pc, #40]	@ (8003e04 <__libc_init_array+0x44>)
 8003dda:	1b64      	subs	r4, r4, r5
 8003ddc:	10a4      	asrs	r4, r4, #2
 8003dde:	42a6      	cmp	r6, r4
 8003de0:	d105      	bne.n	8003dee <__libc_init_array+0x2e>
 8003de2:	bd70      	pop	{r4, r5, r6, pc}
 8003de4:	00b3      	lsls	r3, r6, #2
 8003de6:	58eb      	ldr	r3, [r5, r3]
 8003de8:	4798      	blx	r3
 8003dea:	3601      	adds	r6, #1
 8003dec:	e7ee      	b.n	8003dcc <__libc_init_array+0xc>
 8003dee:	00b3      	lsls	r3, r6, #2
 8003df0:	58eb      	ldr	r3, [r5, r3]
 8003df2:	4798      	blx	r3
 8003df4:	3601      	adds	r6, #1
 8003df6:	e7f2      	b.n	8003dde <__libc_init_array+0x1e>
 8003df8:	08005668 	.word	0x08005668
 8003dfc:	08005668 	.word	0x08005668
 8003e00:	0800566c 	.word	0x0800566c
 8003e04:	08005668 	.word	0x08005668

08003e08 <__retarget_lock_acquire_recursive>:
 8003e08:	4770      	bx	lr

08003e0a <__retarget_lock_release_recursive>:
 8003e0a:	4770      	bx	lr

08003e0c <strcpy>:
 8003e0c:	0003      	movs	r3, r0
 8003e0e:	780a      	ldrb	r2, [r1, #0]
 8003e10:	3101      	adds	r1, #1
 8003e12:	701a      	strb	r2, [r3, #0]
 8003e14:	3301      	adds	r3, #1
 8003e16:	2a00      	cmp	r2, #0
 8003e18:	d1f9      	bne.n	8003e0e <strcpy+0x2>
 8003e1a:	4770      	bx	lr

08003e1c <memcpy>:
 8003e1c:	2300      	movs	r3, #0
 8003e1e:	b510      	push	{r4, lr}
 8003e20:	429a      	cmp	r2, r3
 8003e22:	d100      	bne.n	8003e26 <memcpy+0xa>
 8003e24:	bd10      	pop	{r4, pc}
 8003e26:	5ccc      	ldrb	r4, [r1, r3]
 8003e28:	54c4      	strb	r4, [r0, r3]
 8003e2a:	3301      	adds	r3, #1
 8003e2c:	e7f8      	b.n	8003e20 <memcpy+0x4>
	...

08003e30 <_free_r>:
 8003e30:	b570      	push	{r4, r5, r6, lr}
 8003e32:	0005      	movs	r5, r0
 8003e34:	1e0c      	subs	r4, r1, #0
 8003e36:	d010      	beq.n	8003e5a <_free_r+0x2a>
 8003e38:	3c04      	subs	r4, #4
 8003e3a:	6823      	ldr	r3, [r4, #0]
 8003e3c:	2b00      	cmp	r3, #0
 8003e3e:	da00      	bge.n	8003e42 <_free_r+0x12>
 8003e40:	18e4      	adds	r4, r4, r3
 8003e42:	0028      	movs	r0, r5
 8003e44:	f7ff ff3e 	bl	8003cc4 <__malloc_lock>
 8003e48:	4a1d      	ldr	r2, [pc, #116]	@ (8003ec0 <_free_r+0x90>)
 8003e4a:	6813      	ldr	r3, [r2, #0]
 8003e4c:	2b00      	cmp	r3, #0
 8003e4e:	d105      	bne.n	8003e5c <_free_r+0x2c>
 8003e50:	6063      	str	r3, [r4, #4]
 8003e52:	6014      	str	r4, [r2, #0]
 8003e54:	0028      	movs	r0, r5
 8003e56:	f7ff ff3d 	bl	8003cd4 <__malloc_unlock>
 8003e5a:	bd70      	pop	{r4, r5, r6, pc}
 8003e5c:	42a3      	cmp	r3, r4
 8003e5e:	d908      	bls.n	8003e72 <_free_r+0x42>
 8003e60:	6820      	ldr	r0, [r4, #0]
 8003e62:	1821      	adds	r1, r4, r0
 8003e64:	428b      	cmp	r3, r1
 8003e66:	d1f3      	bne.n	8003e50 <_free_r+0x20>
 8003e68:	6819      	ldr	r1, [r3, #0]
 8003e6a:	685b      	ldr	r3, [r3, #4]
 8003e6c:	1809      	adds	r1, r1, r0
 8003e6e:	6021      	str	r1, [r4, #0]
 8003e70:	e7ee      	b.n	8003e50 <_free_r+0x20>
 8003e72:	001a      	movs	r2, r3
 8003e74:	685b      	ldr	r3, [r3, #4]
 8003e76:	2b00      	cmp	r3, #0
 8003e78:	d001      	beq.n	8003e7e <_free_r+0x4e>
 8003e7a:	42a3      	cmp	r3, r4
 8003e7c:	d9f9      	bls.n	8003e72 <_free_r+0x42>
 8003e7e:	6811      	ldr	r1, [r2, #0]
 8003e80:	1850      	adds	r0, r2, r1
 8003e82:	42a0      	cmp	r0, r4
 8003e84:	d10b      	bne.n	8003e9e <_free_r+0x6e>
 8003e86:	6820      	ldr	r0, [r4, #0]
 8003e88:	1809      	adds	r1, r1, r0
 8003e8a:	1850      	adds	r0, r2, r1
 8003e8c:	6011      	str	r1, [r2, #0]
 8003e8e:	4283      	cmp	r3, r0
 8003e90:	d1e0      	bne.n	8003e54 <_free_r+0x24>
 8003e92:	6818      	ldr	r0, [r3, #0]
 8003e94:	685b      	ldr	r3, [r3, #4]
 8003e96:	1841      	adds	r1, r0, r1
 8003e98:	6011      	str	r1, [r2, #0]
 8003e9a:	6053      	str	r3, [r2, #4]
 8003e9c:	e7da      	b.n	8003e54 <_free_r+0x24>
 8003e9e:	42a0      	cmp	r0, r4
 8003ea0:	d902      	bls.n	8003ea8 <_free_r+0x78>
 8003ea2:	230c      	movs	r3, #12
 8003ea4:	602b      	str	r3, [r5, #0]
 8003ea6:	e7d5      	b.n	8003e54 <_free_r+0x24>
 8003ea8:	6820      	ldr	r0, [r4, #0]
 8003eaa:	1821      	adds	r1, r4, r0
 8003eac:	428b      	cmp	r3, r1
 8003eae:	d103      	bne.n	8003eb8 <_free_r+0x88>
 8003eb0:	6819      	ldr	r1, [r3, #0]
 8003eb2:	685b      	ldr	r3, [r3, #4]
 8003eb4:	1809      	adds	r1, r1, r0
 8003eb6:	6021      	str	r1, [r4, #0]
 8003eb8:	6063      	str	r3, [r4, #4]
 8003eba:	6054      	str	r4, [r2, #4]
 8003ebc:	e7ca      	b.n	8003e54 <_free_r+0x24>
 8003ebe:	46c0      	nop			@ (mov r8, r8)
 8003ec0:	2000049c 	.word	0x2000049c

08003ec4 <__ssputs_r>:
 8003ec4:	b5f0      	push	{r4, r5, r6, r7, lr}
 8003ec6:	688e      	ldr	r6, [r1, #8]
 8003ec8:	b085      	sub	sp, #20
 8003eca:	001f      	movs	r7, r3
 8003ecc:	000c      	movs	r4, r1
 8003ece:	680b      	ldr	r3, [r1, #0]
 8003ed0:	9002      	str	r0, [sp, #8]
 8003ed2:	9203      	str	r2, [sp, #12]
 8003ed4:	42be      	cmp	r6, r7
 8003ed6:	d830      	bhi.n	8003f3a <__ssputs_r+0x76>
 8003ed8:	210c      	movs	r1, #12
 8003eda:	5e62      	ldrsh	r2, [r4, r1]
 8003edc:	2190      	movs	r1, #144	@ 0x90
 8003ede:	00c9      	lsls	r1, r1, #3
 8003ee0:	420a      	tst	r2, r1
 8003ee2:	d028      	beq.n	8003f36 <__ssputs_r+0x72>
 8003ee4:	2003      	movs	r0, #3
 8003ee6:	6921      	ldr	r1, [r4, #16]
 8003ee8:	1a5b      	subs	r3, r3, r1
 8003eea:	9301      	str	r3, [sp, #4]
 8003eec:	6963      	ldr	r3, [r4, #20]
 8003eee:	4343      	muls	r3, r0
 8003ef0:	9801      	ldr	r0, [sp, #4]
 8003ef2:	0fdd      	lsrs	r5, r3, #31
 8003ef4:	18ed      	adds	r5, r5, r3
 8003ef6:	1c7b      	adds	r3, r7, #1
 8003ef8:	181b      	adds	r3, r3, r0
 8003efa:	106d      	asrs	r5, r5, #1
 8003efc:	42ab      	cmp	r3, r5
 8003efe:	d900      	bls.n	8003f02 <__ssputs_r+0x3e>
 8003f00:	001d      	movs	r5, r3
 8003f02:	0552      	lsls	r2, r2, #21
 8003f04:	d528      	bpl.n	8003f58 <__ssputs_r+0x94>
 8003f06:	0029      	movs	r1, r5
 8003f08:	9802      	ldr	r0, [sp, #8]
 8003f0a:	f7ff fe5b 	bl	8003bc4 <_malloc_r>
 8003f0e:	1e06      	subs	r6, r0, #0
 8003f10:	d02c      	beq.n	8003f6c <__ssputs_r+0xa8>
 8003f12:	9a01      	ldr	r2, [sp, #4]
 8003f14:	6921      	ldr	r1, [r4, #16]
 8003f16:	f7ff ff81 	bl	8003e1c <memcpy>
 8003f1a:	89a2      	ldrh	r2, [r4, #12]
 8003f1c:	4b18      	ldr	r3, [pc, #96]	@ (8003f80 <__ssputs_r+0xbc>)
 8003f1e:	401a      	ands	r2, r3
 8003f20:	2380      	movs	r3, #128	@ 0x80
 8003f22:	4313      	orrs	r3, r2
 8003f24:	81a3      	strh	r3, [r4, #12]
 8003f26:	9b01      	ldr	r3, [sp, #4]
 8003f28:	6126      	str	r6, [r4, #16]
 8003f2a:	18f6      	adds	r6, r6, r3
 8003f2c:	6026      	str	r6, [r4, #0]
 8003f2e:	003e      	movs	r6, r7
 8003f30:	6165      	str	r5, [r4, #20]
 8003f32:	1aed      	subs	r5, r5, r3
 8003f34:	60a5      	str	r5, [r4, #8]
 8003f36:	42be      	cmp	r6, r7
 8003f38:	d900      	bls.n	8003f3c <__ssputs_r+0x78>
 8003f3a:	003e      	movs	r6, r7
 8003f3c:	0032      	movs	r2, r6
 8003f3e:	9903      	ldr	r1, [sp, #12]
 8003f40:	6820      	ldr	r0, [r4, #0]
 8003f42:	f000 fe31 	bl	8004ba8 <memmove>
 8003f46:	2000      	movs	r0, #0
 8003f48:	68a3      	ldr	r3, [r4, #8]
 8003f4a:	1b9b      	subs	r3, r3, r6
 8003f4c:	60a3      	str	r3, [r4, #8]
 8003f4e:	6823      	ldr	r3, [r4, #0]
 8003f50:	199b      	adds	r3, r3, r6
 8003f52:	6023      	str	r3, [r4, #0]
 8003f54:	b005      	add	sp, #20
 8003f56:	bdf0      	pop	{r4, r5, r6, r7, pc}
 8003f58:	002a      	movs	r2, r5
 8003f5a:	9802      	ldr	r0, [sp, #8]
 8003f5c:	f000 fe41 	bl	8004be2 <_realloc_r>
 8003f60:	1e06      	subs	r6, r0, #0
 8003f62:	d1e0      	bne.n	8003f26 <__ssputs_r+0x62>
 8003f64:	6921      	ldr	r1, [r4, #16]
 8003f66:	9802      	ldr	r0, [sp, #8]
 8003f68:	f7ff ff62 	bl	8003e30 <_free_r>
 8003f6c:	230c      	movs	r3, #12
 8003f6e:	2001      	movs	r0, #1
 8003f70:	9a02      	ldr	r2, [sp, #8]
 8003f72:	4240      	negs	r0, r0
 8003f74:	6013      	str	r3, [r2, #0]
 8003f76:	89a2      	ldrh	r2, [r4, #12]
 8003f78:	3334      	adds	r3, #52	@ 0x34
 8003f7a:	4313      	orrs	r3, r2
 8003f7c:	81a3      	strh	r3, [r4, #12]
 8003f7e:	e7e9      	b.n	8003f54 <__ssputs_r+0x90>
 8003f80:	fffffb7f 	.word	0xfffffb7f

08003f84 <_svfiprintf_r>:
 8003f84:	b5f0      	push	{r4, r5, r6, r7, lr}
 8003f86:	b0a1      	sub	sp, #132	@ 0x84
 8003f88:	9003      	str	r0, [sp, #12]
 8003f8a:	001d      	movs	r5, r3
 8003f8c:	898b      	ldrh	r3, [r1, #12]
 8003f8e:	000f      	movs	r7, r1
 8003f90:	0016      	movs	r6, r2
 8003f92:	061b      	lsls	r3, r3, #24
 8003f94:	d511      	bpl.n	8003fba <_svfiprintf_r+0x36>
 8003f96:	690b      	ldr	r3, [r1, #16]
 8003f98:	2b00      	cmp	r3, #0
 8003f9a:	d10e      	bne.n	8003fba <_svfiprintf_r+0x36>
 8003f9c:	2140      	movs	r1, #64	@ 0x40
 8003f9e:	f7ff fe11 	bl	8003bc4 <_malloc_r>
 8003fa2:	6038      	str	r0, [r7, #0]
 8003fa4:	6138      	str	r0, [r7, #16]
 8003fa6:	2800      	cmp	r0, #0
 8003fa8:	d105      	bne.n	8003fb6 <_svfiprintf_r+0x32>
 8003faa:	230c      	movs	r3, #12
 8003fac:	9a03      	ldr	r2, [sp, #12]
 8003fae:	6013      	str	r3, [r2, #0]
 8003fb0:	2001      	movs	r0, #1
 8003fb2:	4240      	negs	r0, r0
 8003fb4:	e0cf      	b.n	8004156 <_svfiprintf_r+0x1d2>
 8003fb6:	2340      	movs	r3, #64	@ 0x40
 8003fb8:	617b      	str	r3, [r7, #20]
 8003fba:	2300      	movs	r3, #0
 8003fbc:	ac08      	add	r4, sp, #32
 8003fbe:	6163      	str	r3, [r4, #20]
 8003fc0:	3320      	adds	r3, #32
 8003fc2:	7663      	strb	r3, [r4, #25]
 8003fc4:	3310      	adds	r3, #16
 8003fc6:	76a3      	strb	r3, [r4, #26]
 8003fc8:	9507      	str	r5, [sp, #28]
 8003fca:	0035      	movs	r5, r6
 8003fcc:	782b      	ldrb	r3, [r5, #0]
 8003fce:	2b00      	cmp	r3, #0
 8003fd0:	d001      	beq.n	8003fd6 <_svfiprintf_r+0x52>
 8003fd2:	2b25      	cmp	r3, #37	@ 0x25
 8003fd4:	d148      	bne.n	8004068 <_svfiprintf_r+0xe4>
 8003fd6:	1bab      	subs	r3, r5, r6
 8003fd8:	9305      	str	r3, [sp, #20]
 8003fda:	42b5      	cmp	r5, r6
 8003fdc:	d00b      	beq.n	8003ff6 <_svfiprintf_r+0x72>
 8003fde:	0032      	movs	r2, r6
 8003fe0:	0039      	movs	r1, r7
 8003fe2:	9803      	ldr	r0, [sp, #12]
 8003fe4:	f7ff ff6e 	bl	8003ec4 <__ssputs_r>
 8003fe8:	3001      	adds	r0, #1
 8003fea:	d100      	bne.n	8003fee <_svfiprintf_r+0x6a>
 8003fec:	e0ae      	b.n	800414c <_svfiprintf_r+0x1c8>
 8003fee:	6963      	ldr	r3, [r4, #20]
 8003ff0:	9a05      	ldr	r2, [sp, #20]
 8003ff2:	189b      	adds	r3, r3, r2
 8003ff4:	6163      	str	r3, [r4, #20]
 8003ff6:	782b      	ldrb	r3, [r5, #0]
 8003ff8:	2b00      	cmp	r3, #0
 8003ffa:	d100      	bne.n	8003ffe <_svfiprintf_r+0x7a>
 8003ffc:	e0a6      	b.n	800414c <_svfiprintf_r+0x1c8>
 8003ffe:	2201      	movs	r2, #1
 8004000:	2300      	movs	r3, #0
 8004002:	4252      	negs	r2, r2
 8004004:	6062      	str	r2, [r4, #4]
 8004006:	a904      	add	r1, sp, #16
 8004008:	3254      	adds	r2, #84	@ 0x54
 800400a:	1852      	adds	r2, r2, r1
 800400c:	1c6e      	adds	r6, r5, #1
 800400e:	6023      	str	r3, [r4, #0]
 8004010:	60e3      	str	r3, [r4, #12]
 8004012:	60a3      	str	r3, [r4, #8]
 8004014:	7013      	strb	r3, [r2, #0]
 8004016:	65a3      	str	r3, [r4, #88]	@ 0x58
 8004018:	4b54      	ldr	r3, [pc, #336]	@ (800416c <_svfiprintf_r+0x1e8>)
 800401a:	2205      	movs	r2, #5
 800401c:	0018      	movs	r0, r3
 800401e:	7831      	ldrb	r1, [r6, #0]
 8004020:	9305      	str	r3, [sp, #20]
 8004022:	f000 fdd3 	bl	8004bcc <memchr>
 8004026:	1c75      	adds	r5, r6, #1
 8004028:	2800      	cmp	r0, #0
 800402a:	d11f      	bne.n	800406c <_svfiprintf_r+0xe8>
 800402c:	6822      	ldr	r2, [r4, #0]
 800402e:	06d3      	lsls	r3, r2, #27
 8004030:	d504      	bpl.n	800403c <_svfiprintf_r+0xb8>
 8004032:	2353      	movs	r3, #83	@ 0x53
 8004034:	a904      	add	r1, sp, #16
 8004036:	185b      	adds	r3, r3, r1
 8004038:	2120      	movs	r1, #32
 800403a:	7019      	strb	r1, [r3, #0]
 800403c:	0713      	lsls	r3, r2, #28
 800403e:	d504      	bpl.n	800404a <_svfiprintf_r+0xc6>
 8004040:	2353      	movs	r3, #83	@ 0x53
 8004042:	a904      	add	r1, sp, #16
 8004044:	185b      	adds	r3, r3, r1
 8004046:	212b      	movs	r1, #43	@ 0x2b
 8004048:	7019      	strb	r1, [r3, #0]
 800404a:	7833      	ldrb	r3, [r6, #0]
 800404c:	2b2a      	cmp	r3, #42	@ 0x2a
 800404e:	d016      	beq.n	800407e <_svfiprintf_r+0xfa>
 8004050:	0035      	movs	r5, r6
 8004052:	2100      	movs	r1, #0
 8004054:	200a      	movs	r0, #10
 8004056:	68e3      	ldr	r3, [r4, #12]
 8004058:	782a      	ldrb	r2, [r5, #0]
 800405a:	1c6e      	adds	r6, r5, #1
 800405c:	3a30      	subs	r2, #48	@ 0x30
 800405e:	2a09      	cmp	r2, #9
 8004060:	d950      	bls.n	8004104 <_svfiprintf_r+0x180>
 8004062:	2900      	cmp	r1, #0
 8004064:	d111      	bne.n	800408a <_svfiprintf_r+0x106>
 8004066:	e017      	b.n	8004098 <_svfiprintf_r+0x114>
 8004068:	3501      	adds	r5, #1
 800406a:	e7af      	b.n	8003fcc <_svfiprintf_r+0x48>
 800406c:	9b05      	ldr	r3, [sp, #20]
 800406e:	6822      	ldr	r2, [r4, #0]
 8004070:	1ac0      	subs	r0, r0, r3
 8004072:	2301      	movs	r3, #1
 8004074:	4083      	lsls	r3, r0
 8004076:	4313      	orrs	r3, r2
 8004078:	002e      	movs	r6, r5
 800407a:	6023      	str	r3, [r4, #0]
 800407c:	e7cc      	b.n	8004018 <_svfiprintf_r+0x94>
 800407e:	9b07      	ldr	r3, [sp, #28]
 8004080:	1d19      	adds	r1, r3, #4
 8004082:	681b      	ldr	r3, [r3, #0]
 8004084:	9107      	str	r1, [sp, #28]
 8004086:	2b00      	cmp	r3, #0
 8004088:	db01      	blt.n	800408e <_svfiprintf_r+0x10a>
 800408a:	930b      	str	r3, [sp, #44]	@ 0x2c
 800408c:	e004      	b.n	8004098 <_svfiprintf_r+0x114>
 800408e:	425b      	negs	r3, r3
 8004090:	60e3      	str	r3, [r4, #12]
 8004092:	2302      	movs	r3, #2
 8004094:	4313      	orrs	r3, r2
 8004096:	6023      	str	r3, [r4, #0]
 8004098:	782b      	ldrb	r3, [r5, #0]
 800409a:	2b2e      	cmp	r3, #46	@ 0x2e
 800409c:	d10c      	bne.n	80040b8 <_svfiprintf_r+0x134>
 800409e:	786b      	ldrb	r3, [r5, #1]
 80040a0:	2b2a      	cmp	r3, #42	@ 0x2a
 80040a2:	d134      	bne.n	800410e <_svfiprintf_r+0x18a>
 80040a4:	9b07      	ldr	r3, [sp, #28]
 80040a6:	3502      	adds	r5, #2
 80040a8:	1d1a      	adds	r2, r3, #4
 80040aa:	681b      	ldr	r3, [r3, #0]
 80040ac:	9207      	str	r2, [sp, #28]
 80040ae:	2b00      	cmp	r3, #0
 80040b0:	da01      	bge.n	80040b6 <_svfiprintf_r+0x132>
 80040b2:	2301      	movs	r3, #1
 80040b4:	425b      	negs	r3, r3
 80040b6:	9309      	str	r3, [sp, #36]	@ 0x24
 80040b8:	4e2d      	ldr	r6, [pc, #180]	@ (8004170 <_svfiprintf_r+0x1ec>)
 80040ba:	2203      	movs	r2, #3
 80040bc:	0030      	movs	r0, r6
 80040be:	7829      	ldrb	r1, [r5, #0]
 80040c0:	f000 fd84 	bl	8004bcc <memchr>
 80040c4:	2800      	cmp	r0, #0
 80040c6:	d006      	beq.n	80040d6 <_svfiprintf_r+0x152>
 80040c8:	2340      	movs	r3, #64	@ 0x40
 80040ca:	1b80      	subs	r0, r0, r6
 80040cc:	4083      	lsls	r3, r0
 80040ce:	6822      	ldr	r2, [r4, #0]
 80040d0:	3501      	adds	r5, #1
 80040d2:	4313      	orrs	r3, r2
 80040d4:	6023      	str	r3, [r4, #0]
 80040d6:	7829      	ldrb	r1, [r5, #0]
 80040d8:	2206      	movs	r2, #6
 80040da:	4826      	ldr	r0, [pc, #152]	@ (8004174 <_svfiprintf_r+0x1f0>)
 80040dc:	1c6e      	adds	r6, r5, #1
 80040de:	7621      	strb	r1, [r4, #24]
 80040e0:	f000 fd74 	bl	8004bcc <memchr>
 80040e4:	2800      	cmp	r0, #0
 80040e6:	d038      	beq.n	800415a <_svfiprintf_r+0x1d6>
 80040e8:	4b23      	ldr	r3, [pc, #140]	@ (8004178 <_svfiprintf_r+0x1f4>)
 80040ea:	2b00      	cmp	r3, #0
 80040ec:	d122      	bne.n	8004134 <_svfiprintf_r+0x1b0>
 80040ee:	2207      	movs	r2, #7
 80040f0:	9b07      	ldr	r3, [sp, #28]
 80040f2:	3307      	adds	r3, #7
 80040f4:	4393      	bics	r3, r2
 80040f6:	3308      	adds	r3, #8
 80040f8:	9307      	str	r3, [sp, #28]
 80040fa:	6963      	ldr	r3, [r4, #20]
 80040fc:	9a04      	ldr	r2, [sp, #16]
 80040fe:	189b      	adds	r3, r3, r2
 8004100:	6163      	str	r3, [r4, #20]
 8004102:	e762      	b.n	8003fca <_svfiprintf_r+0x46>
 8004104:	4343      	muls	r3, r0
 8004106:	0035      	movs	r5, r6
 8004108:	2101      	movs	r1, #1
 800410a:	189b      	adds	r3, r3, r2
 800410c:	e7a4      	b.n	8004058 <_svfiprintf_r+0xd4>
 800410e:	2300      	movs	r3, #0
 8004110:	200a      	movs	r0, #10
 8004112:	0019      	movs	r1, r3
 8004114:	3501      	adds	r5, #1
 8004116:	6063      	str	r3, [r4, #4]
 8004118:	782a      	ldrb	r2, [r5, #0]
 800411a:	1c6e      	adds	r6, r5, #1
 800411c:	3a30      	subs	r2, #48	@ 0x30
 800411e:	2a09      	cmp	r2, #9
 8004120:	d903      	bls.n	800412a <_svfiprintf_r+0x1a6>
 8004122:	2b00      	cmp	r3, #0
 8004124:	d0c8      	beq.n	80040b8 <_svfiprintf_r+0x134>
 8004126:	9109      	str	r1, [sp, #36]	@ 0x24
 8004128:	e7c6      	b.n	80040b8 <_svfiprintf_r+0x134>
 800412a:	4341      	muls	r1, r0
 800412c:	0035      	movs	r5, r6
 800412e:	2301      	movs	r3, #1
 8004130:	1889      	adds	r1, r1, r2
 8004132:	e7f1      	b.n	8004118 <_svfiprintf_r+0x194>
 8004134:	aa07      	add	r2, sp, #28
 8004136:	9200      	str	r2, [sp, #0]
 8004138:	0021      	movs	r1, r4
 800413a:	003a      	movs	r2, r7
 800413c:	4b0f      	ldr	r3, [pc, #60]	@ (800417c <_svfiprintf_r+0x1f8>)
 800413e:	9803      	ldr	r0, [sp, #12]
 8004140:	e000      	b.n	8004144 <_svfiprintf_r+0x1c0>
 8004142:	bf00      	nop
 8004144:	9004      	str	r0, [sp, #16]
 8004146:	9b04      	ldr	r3, [sp, #16]
 8004148:	3301      	adds	r3, #1
 800414a:	d1d6      	bne.n	80040fa <_svfiprintf_r+0x176>
 800414c:	89bb      	ldrh	r3, [r7, #12]
 800414e:	980d      	ldr	r0, [sp, #52]	@ 0x34
 8004150:	065b      	lsls	r3, r3, #25
 8004152:	d500      	bpl.n	8004156 <_svfiprintf_r+0x1d2>
 8004154:	e72c      	b.n	8003fb0 <_svfiprintf_r+0x2c>
 8004156:	b021      	add	sp, #132	@ 0x84
 8004158:	bdf0      	pop	{r4, r5, r6, r7, pc}
 800415a:	aa07      	add	r2, sp, #28
 800415c:	9200      	str	r2, [sp, #0]
 800415e:	0021      	movs	r1, r4
 8004160:	003a      	movs	r2, r7
 8004162:	4b06      	ldr	r3, [pc, #24]	@ (800417c <_svfiprintf_r+0x1f8>)
 8004164:	9803      	ldr	r0, [sp, #12]
 8004166:	f000 fa3b 	bl	80045e0 <_printf_i>
 800416a:	e7eb      	b.n	8004144 <_svfiprintf_r+0x1c0>
 800416c:	08005619 	.word	0x08005619
 8004170:	0800561f 	.word	0x0800561f
 8004174:	08005623 	.word	0x08005623
 8004178:	00000000 	.word	0x00000000
 800417c:	08003ec5 	.word	0x08003ec5

08004180 <_sungetc_r>:
 8004180:	b570      	push	{r4, r5, r6, lr}
 8004182:	0014      	movs	r4, r2
 8004184:	1c4b      	adds	r3, r1, #1
 8004186:	d103      	bne.n	8004190 <_sungetc_r+0x10>
 8004188:	2501      	movs	r5, #1
 800418a:	426d      	negs	r5, r5
 800418c:	0028      	movs	r0, r5
 800418e:	bd70      	pop	{r4, r5, r6, pc}
 8004190:	8993      	ldrh	r3, [r2, #12]
 8004192:	2220      	movs	r2, #32
 8004194:	4393      	bics	r3, r2
 8004196:	6b62      	ldr	r2, [r4, #52]	@ 0x34
 8004198:	81a3      	strh	r3, [r4, #12]
 800419a:	b2ce      	uxtb	r6, r1
 800419c:	6863      	ldr	r3, [r4, #4]
 800419e:	b2cd      	uxtb	r5, r1
 80041a0:	2a00      	cmp	r2, #0
 80041a2:	d010      	beq.n	80041c6 <_sungetc_r+0x46>
 80041a4:	6ba2      	ldr	r2, [r4, #56]	@ 0x38
 80041a6:	429a      	cmp	r2, r3
 80041a8:	dd07      	ble.n	80041ba <_sungetc_r+0x3a>
 80041aa:	6823      	ldr	r3, [r4, #0]
 80041ac:	3b01      	subs	r3, #1
 80041ae:	6023      	str	r3, [r4, #0]
 80041b0:	701e      	strb	r6, [r3, #0]
 80041b2:	6863      	ldr	r3, [r4, #4]
 80041b4:	3301      	adds	r3, #1
 80041b6:	6063      	str	r3, [r4, #4]
 80041b8:	e7e8      	b.n	800418c <_sungetc_r+0xc>
 80041ba:	0021      	movs	r1, r4
 80041bc:	f000 fcb6 	bl	8004b2c <__submore>
 80041c0:	2800      	cmp	r0, #0
 80041c2:	d0f2      	beq.n	80041aa <_sungetc_r+0x2a>
 80041c4:	e7e0      	b.n	8004188 <_sungetc_r+0x8>
 80041c6:	6921      	ldr	r1, [r4, #16]
 80041c8:	6822      	ldr	r2, [r4, #0]
 80041ca:	2900      	cmp	r1, #0
 80041cc:	d007      	beq.n	80041de <_sungetc_r+0x5e>
 80041ce:	4291      	cmp	r1, r2
 80041d0:	d205      	bcs.n	80041de <_sungetc_r+0x5e>
 80041d2:	1e51      	subs	r1, r2, #1
 80041d4:	7808      	ldrb	r0, [r1, #0]
 80041d6:	42a8      	cmp	r0, r5
 80041d8:	d101      	bne.n	80041de <_sungetc_r+0x5e>
 80041da:	6021      	str	r1, [r4, #0]
 80041dc:	e7ea      	b.n	80041b4 <_sungetc_r+0x34>
 80041de:	6423      	str	r3, [r4, #64]	@ 0x40
 80041e0:	0023      	movs	r3, r4
 80041e2:	3344      	adds	r3, #68	@ 0x44
 80041e4:	6363      	str	r3, [r4, #52]	@ 0x34
 80041e6:	2303      	movs	r3, #3
 80041e8:	63a3      	str	r3, [r4, #56]	@ 0x38
 80041ea:	0023      	movs	r3, r4
 80041ec:	3346      	adds	r3, #70	@ 0x46
 80041ee:	63e2      	str	r2, [r4, #60]	@ 0x3c
 80041f0:	701e      	strb	r6, [r3, #0]
 80041f2:	6023      	str	r3, [r4, #0]
 80041f4:	2301      	movs	r3, #1
 80041f6:	e7de      	b.n	80041b6 <_sungetc_r+0x36>

080041f8 <__ssrefill_r>:
 80041f8:	b510      	push	{r4, lr}
 80041fa:	000c      	movs	r4, r1
 80041fc:	6b49      	ldr	r1, [r1, #52]	@ 0x34
 80041fe:	2900      	cmp	r1, #0
 8004200:	d00e      	beq.n	8004220 <__ssrefill_r+0x28>
 8004202:	0023      	movs	r3, r4
 8004204:	3344      	adds	r3, #68	@ 0x44
 8004206:	4299      	cmp	r1, r3
 8004208:	d001      	beq.n	800420e <__ssrefill_r+0x16>
 800420a:	f7ff fe11 	bl	8003e30 <_free_r>
 800420e:	2000      	movs	r0, #0
 8004210:	6c23      	ldr	r3, [r4, #64]	@ 0x40
 8004212:	6360      	str	r0, [r4, #52]	@ 0x34
 8004214:	6063      	str	r3, [r4, #4]
 8004216:	4283      	cmp	r3, r0
 8004218:	d002      	beq.n	8004220 <__ssrefill_r+0x28>
 800421a:	6be3      	ldr	r3, [r4, #60]	@ 0x3c
 800421c:	6023      	str	r3, [r4, #0]
 800421e:	bd10      	pop	{r4, pc}
 8004220:	6923      	ldr	r3, [r4, #16]
 8004222:	2001      	movs	r0, #1
 8004224:	6023      	str	r3, [r4, #0]
 8004226:	2300      	movs	r3, #0
 8004228:	89a2      	ldrh	r2, [r4, #12]
 800422a:	6063      	str	r3, [r4, #4]
 800422c:	3320      	adds	r3, #32
 800422e:	4313      	orrs	r3, r2
 8004230:	81a3      	strh	r3, [r4, #12]
 8004232:	4240      	negs	r0, r0
 8004234:	e7f3      	b.n	800421e <__ssrefill_r+0x26>
	...

08004238 <__ssvfiscanf_r>:
 8004238:	b5f0      	push	{r4, r5, r6, r7, lr}
 800423a:	4cab      	ldr	r4, [pc, #684]	@ (80044e8 <__ssvfiscanf_r+0x2b0>)
 800423c:	44a5      	add	sp, r4
 800423e:	000c      	movs	r4, r1
 8004240:	2100      	movs	r1, #0
 8004242:	9000      	str	r0, [sp, #0]
 8004244:	20be      	movs	r0, #190	@ 0xbe
 8004246:	9146      	str	r1, [sp, #280]	@ 0x118
 8004248:	9147      	str	r1, [sp, #284]	@ 0x11c
 800424a:	a903      	add	r1, sp, #12
 800424c:	9148      	str	r1, [sp, #288]	@ 0x120
 800424e:	49a7      	ldr	r1, [pc, #668]	@ (80044ec <__ssvfiscanf_r+0x2b4>)
 8004250:	0040      	lsls	r0, r0, #1
 8004252:	ad43      	add	r5, sp, #268	@ 0x10c
 8004254:	5029      	str	r1, [r5, r0]
 8004256:	49a6      	ldr	r1, [pc, #664]	@ (80044f0 <__ssvfiscanf_r+0x2b8>)
 8004258:	3004      	adds	r0, #4
 800425a:	ad43      	add	r5, sp, #268	@ 0x10c
 800425c:	5029      	str	r1, [r5, r0]
 800425e:	9302      	str	r3, [sp, #8]
 8004260:	7816      	ldrb	r6, [r2, #0]
 8004262:	2e00      	cmp	r6, #0
 8004264:	d100      	bne.n	8004268 <__ssvfiscanf_r+0x30>
 8004266:	e13c      	b.n	80044e2 <__ssvfiscanf_r+0x2aa>
 8004268:	2308      	movs	r3, #8
 800426a:	2008      	movs	r0, #8
 800426c:	4da1      	ldr	r5, [pc, #644]	@ (80044f4 <__ssvfiscanf_r+0x2bc>)
 800426e:	1c57      	adds	r7, r2, #1
 8004270:	5da9      	ldrb	r1, [r5, r6]
 8004272:	400b      	ands	r3, r1
 8004274:	4201      	tst	r1, r0
 8004276:	d01d      	beq.n	80042b4 <__ssvfiscanf_r+0x7c>
 8004278:	0006      	movs	r6, r0
 800427a:	6863      	ldr	r3, [r4, #4]
 800427c:	2b00      	cmp	r3, #0
 800427e:	dd0f      	ble.n	80042a0 <__ssvfiscanf_r+0x68>
 8004280:	6823      	ldr	r3, [r4, #0]
 8004282:	781a      	ldrb	r2, [r3, #0]
 8004284:	5caa      	ldrb	r2, [r5, r2]
 8004286:	4232      	tst	r2, r6
 8004288:	d101      	bne.n	800428e <__ssvfiscanf_r+0x56>
 800428a:	003a      	movs	r2, r7
 800428c:	e7e8      	b.n	8004260 <__ssvfiscanf_r+0x28>
 800428e:	9a47      	ldr	r2, [sp, #284]	@ 0x11c
 8004290:	3301      	adds	r3, #1
 8004292:	3201      	adds	r2, #1
 8004294:	9247      	str	r2, [sp, #284]	@ 0x11c
 8004296:	6862      	ldr	r2, [r4, #4]
 8004298:	6023      	str	r3, [r4, #0]
 800429a:	3a01      	subs	r2, #1
 800429c:	6062      	str	r2, [r4, #4]
 800429e:	e7ec      	b.n	800427a <__ssvfiscanf_r+0x42>
 80042a0:	22c0      	movs	r2, #192	@ 0xc0
 80042a2:	ab43      	add	r3, sp, #268	@ 0x10c
 80042a4:	0052      	lsls	r2, r2, #1
 80042a6:	0021      	movs	r1, r4
 80042a8:	589b      	ldr	r3, [r3, r2]
 80042aa:	9800      	ldr	r0, [sp, #0]
 80042ac:	4798      	blx	r3
 80042ae:	2800      	cmp	r0, #0
 80042b0:	d0e6      	beq.n	8004280 <__ssvfiscanf_r+0x48>
 80042b2:	e7ea      	b.n	800428a <__ssvfiscanf_r+0x52>
 80042b4:	2e25      	cmp	r6, #37	@ 0x25
 80042b6:	d162      	bne.n	800437e <__ssvfiscanf_r+0x146>
 80042b8:	9345      	str	r3, [sp, #276]	@ 0x114
 80042ba:	9343      	str	r3, [sp, #268]	@ 0x10c
 80042bc:	7853      	ldrb	r3, [r2, #1]
 80042be:	2b2a      	cmp	r3, #42	@ 0x2a
 80042c0:	d102      	bne.n	80042c8 <__ssvfiscanf_r+0x90>
 80042c2:	3b1a      	subs	r3, #26
 80042c4:	9343      	str	r3, [sp, #268]	@ 0x10c
 80042c6:	1c97      	adds	r7, r2, #2
 80042c8:	003d      	movs	r5, r7
 80042ca:	220a      	movs	r2, #10
 80042cc:	7829      	ldrb	r1, [r5, #0]
 80042ce:	1c6f      	adds	r7, r5, #1
 80042d0:	000b      	movs	r3, r1
 80042d2:	3b30      	subs	r3, #48	@ 0x30
 80042d4:	2b09      	cmp	r3, #9
 80042d6:	d91f      	bls.n	8004318 <__ssvfiscanf_r+0xe0>
 80042d8:	4b87      	ldr	r3, [pc, #540]	@ (80044f8 <__ssvfiscanf_r+0x2c0>)
 80042da:	2203      	movs	r2, #3
 80042dc:	0018      	movs	r0, r3
 80042de:	9301      	str	r3, [sp, #4]
 80042e0:	f000 fc74 	bl	8004bcc <memchr>
 80042e4:	2800      	cmp	r0, #0
 80042e6:	d007      	beq.n	80042f8 <__ssvfiscanf_r+0xc0>
 80042e8:	9b01      	ldr	r3, [sp, #4]
 80042ea:	003d      	movs	r5, r7
 80042ec:	1ac0      	subs	r0, r0, r3
 80042ee:	2301      	movs	r3, #1
 80042f0:	4083      	lsls	r3, r0
 80042f2:	9a43      	ldr	r2, [sp, #268]	@ 0x10c
 80042f4:	4313      	orrs	r3, r2
 80042f6:	9343      	str	r3, [sp, #268]	@ 0x10c
 80042f8:	782b      	ldrb	r3, [r5, #0]
 80042fa:	1c6f      	adds	r7, r5, #1
 80042fc:	2b78      	cmp	r3, #120	@ 0x78
 80042fe:	d806      	bhi.n	800430e <__ssvfiscanf_r+0xd6>
 8004300:	2b57      	cmp	r3, #87	@ 0x57
 8004302:	d810      	bhi.n	8004326 <__ssvfiscanf_r+0xee>
 8004304:	2b25      	cmp	r3, #37	@ 0x25
 8004306:	d03a      	beq.n	800437e <__ssvfiscanf_r+0x146>
 8004308:	d834      	bhi.n	8004374 <__ssvfiscanf_r+0x13c>
 800430a:	2b00      	cmp	r3, #0
 800430c:	d055      	beq.n	80043ba <__ssvfiscanf_r+0x182>
 800430e:	2303      	movs	r3, #3
 8004310:	9349      	str	r3, [sp, #292]	@ 0x124
 8004312:	3307      	adds	r3, #7
 8004314:	9344      	str	r3, [sp, #272]	@ 0x110
 8004316:	e069      	b.n	80043ec <__ssvfiscanf_r+0x1b4>
 8004318:	9b45      	ldr	r3, [sp, #276]	@ 0x114
 800431a:	003d      	movs	r5, r7
 800431c:	4353      	muls	r3, r2
 800431e:	3b30      	subs	r3, #48	@ 0x30
 8004320:	185b      	adds	r3, r3, r1
 8004322:	9345      	str	r3, [sp, #276]	@ 0x114
 8004324:	e7d2      	b.n	80042cc <__ssvfiscanf_r+0x94>
 8004326:	0018      	movs	r0, r3
 8004328:	3858      	subs	r0, #88	@ 0x58
 800432a:	2820      	cmp	r0, #32
 800432c:	d8ef      	bhi.n	800430e <__ssvfiscanf_r+0xd6>
 800432e:	f7fb ff51 	bl	80001d4 <__gnu_thumb1_case_shi>
 8004332:	004b      	.short	0x004b
 8004334:	ffeeffee 	.word	0xffeeffee
 8004338:	ffee007d 	.word	0xffee007d
 800433c:	ffeeffee 	.word	0xffeeffee
 8004340:	ffeeffee 	.word	0xffeeffee
 8004344:	ffeeffee 	.word	0xffeeffee
 8004348:	007b0088 	.word	0x007b0088
 800434c:	00240024 	.word	0x00240024
 8004350:	ffee0024 	.word	0xffee0024
 8004354:	ffee0055 	.word	0xffee0055
 8004358:	ffeeffee 	.word	0xffeeffee
 800435c:	0090ffee 	.word	0x0090ffee
 8004360:	00470059 	.word	0x00470059
 8004364:	ffeeffee 	.word	0xffeeffee
 8004368:	ffee008e 	.word	0xffee008e
 800436c:	ffee007b 	.word	0xffee007b
 8004370:	004bffee 	.word	0x004bffee
 8004374:	3b45      	subs	r3, #69	@ 0x45
 8004376:	2b02      	cmp	r3, #2
 8004378:	d8c9      	bhi.n	800430e <__ssvfiscanf_r+0xd6>
 800437a:	2305      	movs	r3, #5
 800437c:	e035      	b.n	80043ea <__ssvfiscanf_r+0x1b2>
 800437e:	6863      	ldr	r3, [r4, #4]
 8004380:	2b00      	cmp	r3, #0
 8004382:	dd0d      	ble.n	80043a0 <__ssvfiscanf_r+0x168>
 8004384:	6823      	ldr	r3, [r4, #0]
 8004386:	781a      	ldrb	r2, [r3, #0]
 8004388:	42b2      	cmp	r2, r6
 800438a:	d000      	beq.n	800438e <__ssvfiscanf_r+0x156>
 800438c:	e0a9      	b.n	80044e2 <__ssvfiscanf_r+0x2aa>
 800438e:	3301      	adds	r3, #1
 8004390:	6862      	ldr	r2, [r4, #4]
 8004392:	6023      	str	r3, [r4, #0]
 8004394:	9b47      	ldr	r3, [sp, #284]	@ 0x11c
 8004396:	3a01      	subs	r2, #1
 8004398:	3301      	adds	r3, #1
 800439a:	6062      	str	r2, [r4, #4]
 800439c:	9347      	str	r3, [sp, #284]	@ 0x11c
 800439e:	e774      	b.n	800428a <__ssvfiscanf_r+0x52>
 80043a0:	23c0      	movs	r3, #192	@ 0xc0
 80043a2:	aa43      	add	r2, sp, #268	@ 0x10c
 80043a4:	005b      	lsls	r3, r3, #1
 80043a6:	0021      	movs	r1, r4
 80043a8:	58d3      	ldr	r3, [r2, r3]
 80043aa:	9800      	ldr	r0, [sp, #0]
 80043ac:	4798      	blx	r3
 80043ae:	2800      	cmp	r0, #0
 80043b0:	d0e8      	beq.n	8004384 <__ssvfiscanf_r+0x14c>
 80043b2:	9846      	ldr	r0, [sp, #280]	@ 0x118
 80043b4:	2800      	cmp	r0, #0
 80043b6:	d000      	beq.n	80043ba <__ssvfiscanf_r+0x182>
 80043b8:	e08b      	b.n	80044d2 <__ssvfiscanf_r+0x29a>
 80043ba:	2001      	movs	r0, #1
 80043bc:	4240      	negs	r0, r0
 80043be:	e08c      	b.n	80044da <__ssvfiscanf_r+0x2a2>
 80043c0:	2220      	movs	r2, #32
 80043c2:	9943      	ldr	r1, [sp, #268]	@ 0x10c
 80043c4:	430a      	orrs	r2, r1
 80043c6:	9243      	str	r2, [sp, #268]	@ 0x10c
 80043c8:	2280      	movs	r2, #128	@ 0x80
 80043ca:	9943      	ldr	r1, [sp, #268]	@ 0x10c
 80043cc:	0092      	lsls	r2, r2, #2
 80043ce:	430a      	orrs	r2, r1
 80043d0:	9243      	str	r2, [sp, #268]	@ 0x10c
 80043d2:	2210      	movs	r2, #16
 80043d4:	9244      	str	r2, [sp, #272]	@ 0x110
 80043d6:	2b6e      	cmp	r3, #110	@ 0x6e
 80043d8:	d902      	bls.n	80043e0 <__ssvfiscanf_r+0x1a8>
 80043da:	e005      	b.n	80043e8 <__ssvfiscanf_r+0x1b0>
 80043dc:	2300      	movs	r3, #0
 80043de:	9344      	str	r3, [sp, #272]	@ 0x110
 80043e0:	2303      	movs	r3, #3
 80043e2:	e002      	b.n	80043ea <__ssvfiscanf_r+0x1b2>
 80043e4:	2308      	movs	r3, #8
 80043e6:	9344      	str	r3, [sp, #272]	@ 0x110
 80043e8:	2304      	movs	r3, #4
 80043ea:	9349      	str	r3, [sp, #292]	@ 0x124
 80043ec:	6863      	ldr	r3, [r4, #4]
 80043ee:	2b00      	cmp	r3, #0
 80043f0:	dd3e      	ble.n	8004470 <__ssvfiscanf_r+0x238>
 80043f2:	9b43      	ldr	r3, [sp, #268]	@ 0x10c
 80043f4:	065b      	lsls	r3, r3, #25
 80043f6:	d408      	bmi.n	800440a <__ssvfiscanf_r+0x1d2>
 80043f8:	26c0      	movs	r6, #192	@ 0xc0
 80043fa:	2508      	movs	r5, #8
 80043fc:	0076      	lsls	r6, r6, #1
 80043fe:	6823      	ldr	r3, [r4, #0]
 8004400:	493c      	ldr	r1, [pc, #240]	@ (80044f4 <__ssvfiscanf_r+0x2bc>)
 8004402:	781a      	ldrb	r2, [r3, #0]
 8004404:	5c8a      	ldrb	r2, [r1, r2]
 8004406:	422a      	tst	r2, r5
 8004408:	d13c      	bne.n	8004484 <__ssvfiscanf_r+0x24c>
 800440a:	9b49      	ldr	r3, [sp, #292]	@ 0x124
 800440c:	2b02      	cmp	r3, #2
 800440e:	dc4c      	bgt.n	80044aa <__ssvfiscanf_r+0x272>
 8004410:	0022      	movs	r2, r4
 8004412:	9800      	ldr	r0, [sp, #0]
 8004414:	ab02      	add	r3, sp, #8
 8004416:	a943      	add	r1, sp, #268	@ 0x10c
 8004418:	f000 f9ee 	bl	80047f8 <_scanf_chars>
 800441c:	2801      	cmp	r0, #1
 800441e:	d060      	beq.n	80044e2 <__ssvfiscanf_r+0x2aa>
 8004420:	2802      	cmp	r0, #2
 8004422:	d000      	beq.n	8004426 <__ssvfiscanf_r+0x1ee>
 8004424:	e731      	b.n	800428a <__ssvfiscanf_r+0x52>
 8004426:	e7c4      	b.n	80043b2 <__ssvfiscanf_r+0x17a>
 8004428:	220a      	movs	r2, #10
 800442a:	e7d3      	b.n	80043d4 <__ssvfiscanf_r+0x19c>
 800442c:	0039      	movs	r1, r7
 800442e:	a803      	add	r0, sp, #12
 8004430:	f000 fb42 	bl	8004ab8 <__sccl>
 8004434:	2340      	movs	r3, #64	@ 0x40
 8004436:	9a43      	ldr	r2, [sp, #268]	@ 0x10c
 8004438:	0007      	movs	r7, r0
 800443a:	4313      	orrs	r3, r2
 800443c:	9343      	str	r3, [sp, #268]	@ 0x10c
 800443e:	2301      	movs	r3, #1
 8004440:	e7d3      	b.n	80043ea <__ssvfiscanf_r+0x1b2>
 8004442:	2340      	movs	r3, #64	@ 0x40
 8004444:	9a43      	ldr	r2, [sp, #268]	@ 0x10c
 8004446:	4313      	orrs	r3, r2
 8004448:	9343      	str	r3, [sp, #268]	@ 0x10c
 800444a:	2300      	movs	r3, #0
 800444c:	e7cd      	b.n	80043ea <__ssvfiscanf_r+0x1b2>
 800444e:	2302      	movs	r3, #2
 8004450:	e7cb      	b.n	80043ea <__ssvfiscanf_r+0x1b2>
 8004452:	9a43      	ldr	r2, [sp, #268]	@ 0x10c
 8004454:	06d3      	lsls	r3, r2, #27
 8004456:	d500      	bpl.n	800445a <__ssvfiscanf_r+0x222>
 8004458:	e717      	b.n	800428a <__ssvfiscanf_r+0x52>
 800445a:	9b02      	ldr	r3, [sp, #8]
 800445c:	9947      	ldr	r1, [sp, #284]	@ 0x11c
 800445e:	1d18      	adds	r0, r3, #4
 8004460:	9002      	str	r0, [sp, #8]
 8004462:	681b      	ldr	r3, [r3, #0]
 8004464:	07d5      	lsls	r5, r2, #31
 8004466:	d501      	bpl.n	800446c <__ssvfiscanf_r+0x234>
 8004468:	8019      	strh	r1, [r3, #0]
 800446a:	e70e      	b.n	800428a <__ssvfiscanf_r+0x52>
 800446c:	6019      	str	r1, [r3, #0]
 800446e:	e70c      	b.n	800428a <__ssvfiscanf_r+0x52>
 8004470:	23c0      	movs	r3, #192	@ 0xc0
 8004472:	aa43      	add	r2, sp, #268	@ 0x10c
 8004474:	005b      	lsls	r3, r3, #1
 8004476:	0021      	movs	r1, r4
 8004478:	58d3      	ldr	r3, [r2, r3]
 800447a:	9800      	ldr	r0, [sp, #0]
 800447c:	4798      	blx	r3
 800447e:	2800      	cmp	r0, #0
 8004480:	d0b7      	beq.n	80043f2 <__ssvfiscanf_r+0x1ba>
 8004482:	e796      	b.n	80043b2 <__ssvfiscanf_r+0x17a>
 8004484:	9a47      	ldr	r2, [sp, #284]	@ 0x11c
 8004486:	3201      	adds	r2, #1
 8004488:	9247      	str	r2, [sp, #284]	@ 0x11c
 800448a:	6862      	ldr	r2, [r4, #4]
 800448c:	3a01      	subs	r2, #1
 800448e:	6062      	str	r2, [r4, #4]
 8004490:	2a00      	cmp	r2, #0
 8004492:	dd02      	ble.n	800449a <__ssvfiscanf_r+0x262>
 8004494:	3301      	adds	r3, #1
 8004496:	6023      	str	r3, [r4, #0]
 8004498:	e7b1      	b.n	80043fe <__ssvfiscanf_r+0x1c6>
 800449a:	ab43      	add	r3, sp, #268	@ 0x10c
 800449c:	0021      	movs	r1, r4
 800449e:	599b      	ldr	r3, [r3, r6]
 80044a0:	9800      	ldr	r0, [sp, #0]
 80044a2:	4798      	blx	r3
 80044a4:	2800      	cmp	r0, #0
 80044a6:	d0aa      	beq.n	80043fe <__ssvfiscanf_r+0x1c6>
 80044a8:	e783      	b.n	80043b2 <__ssvfiscanf_r+0x17a>
 80044aa:	2b04      	cmp	r3, #4
 80044ac:	dc06      	bgt.n	80044bc <__ssvfiscanf_r+0x284>
 80044ae:	0022      	movs	r2, r4
 80044b0:	9800      	ldr	r0, [sp, #0]
 80044b2:	ab02      	add	r3, sp, #8
 80044b4:	a943      	add	r1, sp, #268	@ 0x10c
 80044b6:	f000 f9ff 	bl	80048b8 <_scanf_i>
 80044ba:	e7af      	b.n	800441c <__ssvfiscanf_r+0x1e4>
 80044bc:	4b0f      	ldr	r3, [pc, #60]	@ (80044fc <__ssvfiscanf_r+0x2c4>)
 80044be:	2b00      	cmp	r3, #0
 80044c0:	d100      	bne.n	80044c4 <__ssvfiscanf_r+0x28c>
 80044c2:	e6e2      	b.n	800428a <__ssvfiscanf_r+0x52>
 80044c4:	0022      	movs	r2, r4
 80044c6:	9800      	ldr	r0, [sp, #0]
 80044c8:	ab02      	add	r3, sp, #8
 80044ca:	a943      	add	r1, sp, #268	@ 0x10c
 80044cc:	e000      	b.n	80044d0 <__ssvfiscanf_r+0x298>
 80044ce:	bf00      	nop
 80044d0:	e7a4      	b.n	800441c <__ssvfiscanf_r+0x1e4>
 80044d2:	89a3      	ldrh	r3, [r4, #12]
 80044d4:	065b      	lsls	r3, r3, #25
 80044d6:	d500      	bpl.n	80044da <__ssvfiscanf_r+0x2a2>
 80044d8:	e76f      	b.n	80043ba <__ssvfiscanf_r+0x182>
 80044da:	23a5      	movs	r3, #165	@ 0xa5
 80044dc:	009b      	lsls	r3, r3, #2
 80044de:	449d      	add	sp, r3
 80044e0:	bdf0      	pop	{r4, r5, r6, r7, pc}
 80044e2:	9846      	ldr	r0, [sp, #280]	@ 0x118
 80044e4:	e7f9      	b.n	80044da <__ssvfiscanf_r+0x2a2>
 80044e6:	46c0      	nop			@ (mov r8, r8)
 80044e8:	fffffd6c 	.word	0xfffffd6c
 80044ec:	08004181 	.word	0x08004181
 80044f0:	080041f9 	.word	0x080041f9
 80044f4:	08005519 	.word	0x08005519
 80044f8:	0800561f 	.word	0x0800561f
 80044fc:	00000000 	.word	0x00000000

08004500 <_printf_common>:
 8004500:	b5f7      	push	{r0, r1, r2, r4, r5, r6, r7, lr}
 8004502:	0016      	movs	r6, r2
 8004504:	9301      	str	r3, [sp, #4]
 8004506:	688a      	ldr	r2, [r1, #8]
 8004508:	690b      	ldr	r3, [r1, #16]
 800450a:	000c      	movs	r4, r1
 800450c:	9000      	str	r0, [sp, #0]
 800450e:	4293      	cmp	r3, r2
 8004510:	da00      	bge.n	8004514 <_printf_common+0x14>
 8004512:	0013      	movs	r3, r2
 8004514:	0022      	movs	r2, r4
 8004516:	6033      	str	r3, [r6, #0]
 8004518:	3243      	adds	r2, #67	@ 0x43
 800451a:	7812      	ldrb	r2, [r2, #0]
 800451c:	2a00      	cmp	r2, #0
 800451e:	d001      	beq.n	8004524 <_printf_common+0x24>
 8004520:	3301      	adds	r3, #1
 8004522:	6033      	str	r3, [r6, #0]
 8004524:	6823      	ldr	r3, [r4, #0]
 8004526:	069b      	lsls	r3, r3, #26
 8004528:	d502      	bpl.n	8004530 <_printf_common+0x30>
 800452a:	6833      	ldr	r3, [r6, #0]
 800452c:	3302      	adds	r3, #2
 800452e:	6033      	str	r3, [r6, #0]
 8004530:	6822      	ldr	r2, [r4, #0]
 8004532:	2306      	movs	r3, #6
 8004534:	0015      	movs	r5, r2
 8004536:	401d      	ands	r5, r3
 8004538:	421a      	tst	r2, r3
 800453a:	d027      	beq.n	800458c <_printf_common+0x8c>
 800453c:	0023      	movs	r3, r4
 800453e:	3343      	adds	r3, #67	@ 0x43
 8004540:	781b      	ldrb	r3, [r3, #0]
 8004542:	1e5a      	subs	r2, r3, #1
 8004544:	4193      	sbcs	r3, r2
 8004546:	6822      	ldr	r2, [r4, #0]
 8004548:	0692      	lsls	r2, r2, #26
 800454a:	d430      	bmi.n	80045ae <_printf_common+0xae>
 800454c:	0022      	movs	r2, r4
 800454e:	9901      	ldr	r1, [sp, #4]
 8004550:	9800      	ldr	r0, [sp, #0]
 8004552:	9d08      	ldr	r5, [sp, #32]
 8004554:	3243      	adds	r2, #67	@ 0x43
 8004556:	47a8      	blx	r5
 8004558:	3001      	adds	r0, #1
 800455a:	d025      	beq.n	80045a8 <_printf_common+0xa8>
 800455c:	2206      	movs	r2, #6
 800455e:	6823      	ldr	r3, [r4, #0]
 8004560:	2500      	movs	r5, #0
 8004562:	4013      	ands	r3, r2
 8004564:	2b04      	cmp	r3, #4
 8004566:	d105      	bne.n	8004574 <_printf_common+0x74>
 8004568:	6833      	ldr	r3, [r6, #0]
 800456a:	68e5      	ldr	r5, [r4, #12]
 800456c:	1aed      	subs	r5, r5, r3
 800456e:	43eb      	mvns	r3, r5
 8004570:	17db      	asrs	r3, r3, #31
 8004572:	401d      	ands	r5, r3
 8004574:	68a3      	ldr	r3, [r4, #8]
 8004576:	6922      	ldr	r2, [r4, #16]
 8004578:	4293      	cmp	r3, r2
 800457a:	dd01      	ble.n	8004580 <_printf_common+0x80>
 800457c:	1a9b      	subs	r3, r3, r2
 800457e:	18ed      	adds	r5, r5, r3
 8004580:	2600      	movs	r6, #0
 8004582:	42b5      	cmp	r5, r6
 8004584:	d120      	bne.n	80045c8 <_printf_common+0xc8>
 8004586:	2000      	movs	r0, #0
 8004588:	e010      	b.n	80045ac <_printf_common+0xac>
 800458a:	3501      	adds	r5, #1
 800458c:	68e3      	ldr	r3, [r4, #12]
 800458e:	6832      	ldr	r2, [r6, #0]
 8004590:	1a9b      	subs	r3, r3, r2
 8004592:	42ab      	cmp	r3, r5
 8004594:	ddd2      	ble.n	800453c <_printf_common+0x3c>
 8004596:	0022      	movs	r2, r4
 8004598:	2301      	movs	r3, #1
 800459a:	9901      	ldr	r1, [sp, #4]
 800459c:	9800      	ldr	r0, [sp, #0]
 800459e:	9f08      	ldr	r7, [sp, #32]
 80045a0:	3219      	adds	r2, #25
 80045a2:	47b8      	blx	r7
 80045a4:	3001      	adds	r0, #1
 80045a6:	d1f0      	bne.n	800458a <_printf_common+0x8a>
 80045a8:	2001      	movs	r0, #1
 80045aa:	4240      	negs	r0, r0
 80045ac:	bdfe      	pop	{r1, r2, r3, r4, r5, r6, r7, pc}
 80045ae:	2030      	movs	r0, #48	@ 0x30
 80045b0:	18e1      	adds	r1, r4, r3
 80045b2:	3143      	adds	r1, #67	@ 0x43
 80045b4:	7008      	strb	r0, [r1, #0]
 80045b6:	0021      	movs	r1, r4
 80045b8:	1c5a      	adds	r2, r3, #1
 80045ba:	3145      	adds	r1, #69	@ 0x45
 80045bc:	7809      	ldrb	r1, [r1, #0]
 80045be:	18a2      	adds	r2, r4, r2
 80045c0:	3243      	adds	r2, #67	@ 0x43
 80045c2:	3302      	adds	r3, #2
 80045c4:	7011      	strb	r1, [r2, #0]
 80045c6:	e7c1      	b.n	800454c <_printf_common+0x4c>
 80045c8:	0022      	movs	r2, r4
 80045ca:	2301      	movs	r3, #1
 80045cc:	9901      	ldr	r1, [sp, #4]
 80045ce:	9800      	ldr	r0, [sp, #0]
 80045d0:	9f08      	ldr	r7, [sp, #32]
 80045d2:	321a      	adds	r2, #26
 80045d4:	47b8      	blx	r7
 80045d6:	3001      	adds	r0, #1
 80045d8:	d0e6      	beq.n	80045a8 <_printf_common+0xa8>
 80045da:	3601      	adds	r6, #1
 80045dc:	e7d1      	b.n	8004582 <_printf_common+0x82>
	...

080045e0 <_printf_i>:
 80045e0:	b5f0      	push	{r4, r5, r6, r7, lr}
 80045e2:	b08b      	sub	sp, #44	@ 0x2c
 80045e4:	9206      	str	r2, [sp, #24]
 80045e6:	000a      	movs	r2, r1
 80045e8:	3243      	adds	r2, #67	@ 0x43
 80045ea:	9307      	str	r3, [sp, #28]
 80045ec:	9005      	str	r0, [sp, #20]
 80045ee:	9203      	str	r2, [sp, #12]
 80045f0:	7e0a      	ldrb	r2, [r1, #24]
 80045f2:	000c      	movs	r4, r1
 80045f4:	9b10      	ldr	r3, [sp, #64]	@ 0x40
 80045f6:	2a78      	cmp	r2, #120	@ 0x78
 80045f8:	d809      	bhi.n	800460e <_printf_i+0x2e>
 80045fa:	2a62      	cmp	r2, #98	@ 0x62
 80045fc:	d80b      	bhi.n	8004616 <_printf_i+0x36>
 80045fe:	2a00      	cmp	r2, #0
 8004600:	d100      	bne.n	8004604 <_printf_i+0x24>
 8004602:	e0ba      	b.n	800477a <_printf_i+0x19a>
 8004604:	497a      	ldr	r1, [pc, #488]	@ (80047f0 <_printf_i+0x210>)
 8004606:	9104      	str	r1, [sp, #16]
 8004608:	2a58      	cmp	r2, #88	@ 0x58
 800460a:	d100      	bne.n	800460e <_printf_i+0x2e>
 800460c:	e08e      	b.n	800472c <_printf_i+0x14c>
 800460e:	0025      	movs	r5, r4
 8004610:	3542      	adds	r5, #66	@ 0x42
 8004612:	702a      	strb	r2, [r5, #0]
 8004614:	e022      	b.n	800465c <_printf_i+0x7c>
 8004616:	0010      	movs	r0, r2
 8004618:	3863      	subs	r0, #99	@ 0x63
 800461a:	2815      	cmp	r0, #21
 800461c:	d8f7      	bhi.n	800460e <_printf_i+0x2e>
 800461e:	f7fb fdd9 	bl	80001d4 <__gnu_thumb1_case_shi>
 8004622:	0016      	.short	0x0016
 8004624:	fff6001f 	.word	0xfff6001f
 8004628:	fff6fff6 	.word	0xfff6fff6
 800462c:	001ffff6 	.word	0x001ffff6
 8004630:	fff6fff6 	.word	0xfff6fff6
 8004634:	fff6fff6 	.word	0xfff6fff6
 8004638:	0036009f 	.word	0x0036009f
 800463c:	fff6007e 	.word	0xfff6007e
 8004640:	00b0fff6 	.word	0x00b0fff6
 8004644:	0036fff6 	.word	0x0036fff6
 8004648:	fff6fff6 	.word	0xfff6fff6
 800464c:	0082      	.short	0x0082
 800464e:	0025      	movs	r5, r4
 8004650:	681a      	ldr	r2, [r3, #0]
 8004652:	3542      	adds	r5, #66	@ 0x42
 8004654:	1d11      	adds	r1, r2, #4
 8004656:	6019      	str	r1, [r3, #0]
 8004658:	6813      	ldr	r3, [r2, #0]
 800465a:	702b      	strb	r3, [r5, #0]
 800465c:	2301      	movs	r3, #1
 800465e:	e09e      	b.n	800479e <_printf_i+0x1be>
 8004660:	6818      	ldr	r0, [r3, #0]
 8004662:	6809      	ldr	r1, [r1, #0]
 8004664:	1d02      	adds	r2, r0, #4
 8004666:	060d      	lsls	r5, r1, #24
 8004668:	d50b      	bpl.n	8004682 <_printf_i+0xa2>
 800466a:	6806      	ldr	r6, [r0, #0]
 800466c:	601a      	str	r2, [r3, #0]
 800466e:	2e00      	cmp	r6, #0
 8004670:	da03      	bge.n	800467a <_printf_i+0x9a>
 8004672:	232d      	movs	r3, #45	@ 0x2d
 8004674:	9a03      	ldr	r2, [sp, #12]
 8004676:	4276      	negs	r6, r6
 8004678:	7013      	strb	r3, [r2, #0]
 800467a:	4b5d      	ldr	r3, [pc, #372]	@ (80047f0 <_printf_i+0x210>)
 800467c:	270a      	movs	r7, #10
 800467e:	9304      	str	r3, [sp, #16]
 8004680:	e018      	b.n	80046b4 <_printf_i+0xd4>
 8004682:	6806      	ldr	r6, [r0, #0]
 8004684:	601a      	str	r2, [r3, #0]
 8004686:	0649      	lsls	r1, r1, #25
 8004688:	d5f1      	bpl.n	800466e <_printf_i+0x8e>
 800468a:	b236      	sxth	r6, r6
 800468c:	e7ef      	b.n	800466e <_printf_i+0x8e>
 800468e:	6808      	ldr	r0, [r1, #0]
 8004690:	6819      	ldr	r1, [r3, #0]
 8004692:	c940      	ldmia	r1!, {r6}
 8004694:	0605      	lsls	r5, r0, #24
 8004696:	d402      	bmi.n	800469e <_printf_i+0xbe>
 8004698:	0640      	lsls	r0, r0, #25
 800469a:	d500      	bpl.n	800469e <_printf_i+0xbe>
 800469c:	b2b6      	uxth	r6, r6
 800469e:	6019      	str	r1, [r3, #0]
 80046a0:	4b53      	ldr	r3, [pc, #332]	@ (80047f0 <_printf_i+0x210>)
 80046a2:	270a      	movs	r7, #10
 80046a4:	9304      	str	r3, [sp, #16]
 80046a6:	2a6f      	cmp	r2, #111	@ 0x6f
 80046a8:	d100      	bne.n	80046ac <_printf_i+0xcc>
 80046aa:	3f02      	subs	r7, #2
 80046ac:	0023      	movs	r3, r4
 80046ae:	2200      	movs	r2, #0
 80046b0:	3343      	adds	r3, #67	@ 0x43
 80046b2:	701a      	strb	r2, [r3, #0]
 80046b4:	6863      	ldr	r3, [r4, #4]
 80046b6:	60a3      	str	r3, [r4, #8]
 80046b8:	2b00      	cmp	r3, #0
 80046ba:	db06      	blt.n	80046ca <_printf_i+0xea>
 80046bc:	2104      	movs	r1, #4
 80046be:	6822      	ldr	r2, [r4, #0]
 80046c0:	9d03      	ldr	r5, [sp, #12]
 80046c2:	438a      	bics	r2, r1
 80046c4:	6022      	str	r2, [r4, #0]
 80046c6:	4333      	orrs	r3, r6
 80046c8:	d00c      	beq.n	80046e4 <_printf_i+0x104>
 80046ca:	9d03      	ldr	r5, [sp, #12]
 80046cc:	0030      	movs	r0, r6
 80046ce:	0039      	movs	r1, r7
 80046d0:	f7fb fe10 	bl	80002f4 <__aeabi_uidivmod>
 80046d4:	9b04      	ldr	r3, [sp, #16]
 80046d6:	3d01      	subs	r5, #1
 80046d8:	5c5b      	ldrb	r3, [r3, r1]
 80046da:	702b      	strb	r3, [r5, #0]
 80046dc:	0033      	movs	r3, r6
 80046de:	0006      	movs	r6, r0
 80046e0:	429f      	cmp	r7, r3
 80046e2:	d9f3      	bls.n	80046cc <_printf_i+0xec>
 80046e4:	2f08      	cmp	r7, #8
 80046e6:	d109      	bne.n	80046fc <_printf_i+0x11c>
 80046e8:	6823      	ldr	r3, [r4, #0]
 80046ea:	07db      	lsls	r3, r3, #31
 80046ec:	d506      	bpl.n	80046fc <_printf_i+0x11c>
 80046ee:	6862      	ldr	r2, [r4, #4]
 80046f0:	6923      	ldr	r3, [r4, #16]
 80046f2:	429a      	cmp	r2, r3
 80046f4:	dc02      	bgt.n	80046fc <_printf_i+0x11c>
 80046f6:	2330      	movs	r3, #48	@ 0x30
 80046f8:	3d01      	subs	r5, #1
 80046fa:	702b      	strb	r3, [r5, #0]
 80046fc:	9b03      	ldr	r3, [sp, #12]
 80046fe:	1b5b      	subs	r3, r3, r5
 8004700:	6123      	str	r3, [r4, #16]
 8004702:	9b07      	ldr	r3, [sp, #28]
 8004704:	0021      	movs	r1, r4
 8004706:	9300      	str	r3, [sp, #0]
 8004708:	9805      	ldr	r0, [sp, #20]
 800470a:	9b06      	ldr	r3, [sp, #24]
 800470c:	aa09      	add	r2, sp, #36	@ 0x24
 800470e:	f7ff fef7 	bl	8004500 <_printf_common>
 8004712:	3001      	adds	r0, #1
 8004714:	d148      	bne.n	80047a8 <_printf_i+0x1c8>
 8004716:	2001      	movs	r0, #1
 8004718:	4240      	negs	r0, r0
 800471a:	b00b      	add	sp, #44	@ 0x2c
 800471c:	bdf0      	pop	{r4, r5, r6, r7, pc}
 800471e:	2220      	movs	r2, #32
 8004720:	6809      	ldr	r1, [r1, #0]
 8004722:	430a      	orrs	r2, r1
 8004724:	6022      	str	r2, [r4, #0]
 8004726:	2278      	movs	r2, #120	@ 0x78
 8004728:	4932      	ldr	r1, [pc, #200]	@ (80047f4 <_printf_i+0x214>)
 800472a:	9104      	str	r1, [sp, #16]
 800472c:	0021      	movs	r1, r4
 800472e:	3145      	adds	r1, #69	@ 0x45
 8004730:	700a      	strb	r2, [r1, #0]
 8004732:	6819      	ldr	r1, [r3, #0]
 8004734:	6822      	ldr	r2, [r4, #0]
 8004736:	c940      	ldmia	r1!, {r6}
 8004738:	0610      	lsls	r0, r2, #24
 800473a:	d402      	bmi.n	8004742 <_printf_i+0x162>
 800473c:	0650      	lsls	r0, r2, #25
 800473e:	d500      	bpl.n	8004742 <_printf_i+0x162>
 8004740:	b2b6      	uxth	r6, r6
 8004742:	6019      	str	r1, [r3, #0]
 8004744:	07d3      	lsls	r3, r2, #31
 8004746:	d502      	bpl.n	800474e <_printf_i+0x16e>
 8004748:	2320      	movs	r3, #32
 800474a:	4313      	orrs	r3, r2
 800474c:	6023      	str	r3, [r4, #0]
 800474e:	2e00      	cmp	r6, #0
 8004750:	d001      	beq.n	8004756 <_printf_i+0x176>
 8004752:	2710      	movs	r7, #16
 8004754:	e7aa      	b.n	80046ac <_printf_i+0xcc>
 8004756:	2220      	movs	r2, #32
 8004758:	6823      	ldr	r3, [r4, #0]
 800475a:	4393      	bics	r3, r2
 800475c:	6023      	str	r3, [r4, #0]
 800475e:	e7f8      	b.n	8004752 <_printf_i+0x172>
 8004760:	681a      	ldr	r2, [r3, #0]
 8004762:	680d      	ldr	r5, [r1, #0]
 8004764:	1d10      	adds	r0, r2, #4
 8004766:	6949      	ldr	r1, [r1, #20]
 8004768:	6018      	str	r0, [r3, #0]
 800476a:	6813      	ldr	r3, [r2, #0]
 800476c:	062e      	lsls	r6, r5, #24
 800476e:	d501      	bpl.n	8004774 <_printf_i+0x194>
 8004770:	6019      	str	r1, [r3, #0]
 8004772:	e002      	b.n	800477a <_printf_i+0x19a>
 8004774:	066d      	lsls	r5, r5, #25
 8004776:	d5fb      	bpl.n	8004770 <_printf_i+0x190>
 8004778:	8019      	strh	r1, [r3, #0]
 800477a:	2300      	movs	r3, #0
 800477c:	9d03      	ldr	r5, [sp, #12]
 800477e:	6123      	str	r3, [r4, #16]
 8004780:	e7bf      	b.n	8004702 <_printf_i+0x122>
 8004782:	681a      	ldr	r2, [r3, #0]
 8004784:	1d11      	adds	r1, r2, #4
 8004786:	6019      	str	r1, [r3, #0]
 8004788:	6815      	ldr	r5, [r2, #0]
 800478a:	2100      	movs	r1, #0
 800478c:	0028      	movs	r0, r5
 800478e:	6862      	ldr	r2, [r4, #4]
 8004790:	f000 fa1c 	bl	8004bcc <memchr>
 8004794:	2800      	cmp	r0, #0
 8004796:	d001      	beq.n	800479c <_printf_i+0x1bc>
 8004798:	1b40      	subs	r0, r0, r5
 800479a:	6060      	str	r0, [r4, #4]
 800479c:	6863      	ldr	r3, [r4, #4]
 800479e:	6123      	str	r3, [r4, #16]
 80047a0:	2300      	movs	r3, #0
 80047a2:	9a03      	ldr	r2, [sp, #12]
 80047a4:	7013      	strb	r3, [r2, #0]
 80047a6:	e7ac      	b.n	8004702 <_printf_i+0x122>
 80047a8:	002a      	movs	r2, r5
 80047aa:	6923      	ldr	r3, [r4, #16]
 80047ac:	9906      	ldr	r1, [sp, #24]
 80047ae:	9805      	ldr	r0, [sp, #20]
 80047b0:	9d07      	ldr	r5, [sp, #28]
 80047b2:	47a8      	blx	r5
 80047b4:	3001      	adds	r0, #1
 80047b6:	d0ae      	beq.n	8004716 <_printf_i+0x136>
 80047b8:	6823      	ldr	r3, [r4, #0]
 80047ba:	079b      	lsls	r3, r3, #30
 80047bc:	d415      	bmi.n	80047ea <_printf_i+0x20a>
 80047be:	9b09      	ldr	r3, [sp, #36]	@ 0x24
 80047c0:	68e0      	ldr	r0, [r4, #12]
 80047c2:	4298      	cmp	r0, r3
 80047c4:	daa9      	bge.n	800471a <_printf_i+0x13a>
 80047c6:	0018      	movs	r0, r3
 80047c8:	e7a7      	b.n	800471a <_printf_i+0x13a>
 80047ca:	0022      	movs	r2, r4
 80047cc:	2301      	movs	r3, #1
 80047ce:	9906      	ldr	r1, [sp, #24]
 80047d0:	9805      	ldr	r0, [sp, #20]
 80047d2:	9e07      	ldr	r6, [sp, #28]
 80047d4:	3219      	adds	r2, #25
 80047d6:	47b0      	blx	r6
 80047d8:	3001      	adds	r0, #1
 80047da:	d09c      	beq.n	8004716 <_printf_i+0x136>
 80047dc:	3501      	adds	r5, #1
 80047de:	68e3      	ldr	r3, [r4, #12]
 80047e0:	9a09      	ldr	r2, [sp, #36]	@ 0x24
 80047e2:	1a9b      	subs	r3, r3, r2
 80047e4:	42ab      	cmp	r3, r5
 80047e6:	dcf0      	bgt.n	80047ca <_printf_i+0x1ea>
 80047e8:	e7e9      	b.n	80047be <_printf_i+0x1de>
 80047ea:	2500      	movs	r5, #0
 80047ec:	e7f7      	b.n	80047de <_printf_i+0x1fe>
 80047ee:	46c0      	nop			@ (mov r8, r8)
 80047f0:	0800562a 	.word	0x0800562a
 80047f4:	0800563b 	.word	0x0800563b

080047f8 <_scanf_chars>:
 80047f8:	b5f7      	push	{r0, r1, r2, r4, r5, r6, r7, lr}
 80047fa:	0015      	movs	r5, r2
 80047fc:	688a      	ldr	r2, [r1, #8]
 80047fe:	000c      	movs	r4, r1
 8004800:	9001      	str	r0, [sp, #4]
 8004802:	2a00      	cmp	r2, #0
 8004804:	d104      	bne.n	8004810 <_scanf_chars+0x18>
 8004806:	698a      	ldr	r2, [r1, #24]
 8004808:	2a00      	cmp	r2, #0
 800480a:	d117      	bne.n	800483c <_scanf_chars+0x44>
 800480c:	3201      	adds	r2, #1
 800480e:	60a2      	str	r2, [r4, #8]
 8004810:	6822      	ldr	r2, [r4, #0]
 8004812:	06d2      	lsls	r2, r2, #27
 8004814:	d403      	bmi.n	800481e <_scanf_chars+0x26>
 8004816:	681a      	ldr	r2, [r3, #0]
 8004818:	1d11      	adds	r1, r2, #4
 800481a:	6019      	str	r1, [r3, #0]
 800481c:	6817      	ldr	r7, [r2, #0]
 800481e:	2600      	movs	r6, #0
 8004820:	69a0      	ldr	r0, [r4, #24]
 8004822:	2800      	cmp	r0, #0
 8004824:	d016      	beq.n	8004854 <_scanf_chars+0x5c>
 8004826:	2801      	cmp	r0, #1
 8004828:	d10b      	bne.n	8004842 <_scanf_chars+0x4a>
 800482a:	682b      	ldr	r3, [r5, #0]
 800482c:	6962      	ldr	r2, [r4, #20]
 800482e:	781b      	ldrb	r3, [r3, #0]
 8004830:	5cd3      	ldrb	r3, [r2, r3]
 8004832:	2b00      	cmp	r3, #0
 8004834:	d10e      	bne.n	8004854 <_scanf_chars+0x5c>
 8004836:	2e00      	cmp	r6, #0
 8004838:	d03b      	beq.n	80048b2 <_scanf_chars+0xba>
 800483a:	e029      	b.n	8004890 <_scanf_chars+0x98>
 800483c:	2201      	movs	r2, #1
 800483e:	4252      	negs	r2, r2
 8004840:	e7e5      	b.n	800480e <_scanf_chars+0x16>
 8004842:	2802      	cmp	r0, #2
 8004844:	d124      	bne.n	8004890 <_scanf_chars+0x98>
 8004846:	682b      	ldr	r3, [r5, #0]
 8004848:	4a1a      	ldr	r2, [pc, #104]	@ (80048b4 <_scanf_chars+0xbc>)
 800484a:	781b      	ldrb	r3, [r3, #0]
 800484c:	5cd3      	ldrb	r3, [r2, r3]
 800484e:	2208      	movs	r2, #8
 8004850:	4213      	tst	r3, r2
 8004852:	d11d      	bne.n	8004890 <_scanf_chars+0x98>
 8004854:	2210      	movs	r2, #16
 8004856:	6823      	ldr	r3, [r4, #0]
 8004858:	3601      	adds	r6, #1
 800485a:	4213      	tst	r3, r2
 800485c:	d103      	bne.n	8004866 <_scanf_chars+0x6e>
 800485e:	682b      	ldr	r3, [r5, #0]
 8004860:	781b      	ldrb	r3, [r3, #0]
 8004862:	703b      	strb	r3, [r7, #0]
 8004864:	3701      	adds	r7, #1
 8004866:	682a      	ldr	r2, [r5, #0]
 8004868:	686b      	ldr	r3, [r5, #4]
 800486a:	3201      	adds	r2, #1
 800486c:	602a      	str	r2, [r5, #0]
 800486e:	68a2      	ldr	r2, [r4, #8]
 8004870:	3b01      	subs	r3, #1
 8004872:	3a01      	subs	r2, #1
 8004874:	606b      	str	r3, [r5, #4]
 8004876:	60a2      	str	r2, [r4, #8]
 8004878:	2a00      	cmp	r2, #0
 800487a:	d009      	beq.n	8004890 <_scanf_chars+0x98>
 800487c:	2b00      	cmp	r3, #0
 800487e:	dccf      	bgt.n	8004820 <_scanf_chars+0x28>
 8004880:	23c0      	movs	r3, #192	@ 0xc0
 8004882:	005b      	lsls	r3, r3, #1
 8004884:	0029      	movs	r1, r5
 8004886:	58e3      	ldr	r3, [r4, r3]
 8004888:	9801      	ldr	r0, [sp, #4]
 800488a:	4798      	blx	r3
 800488c:	2800      	cmp	r0, #0
 800488e:	d0c7      	beq.n	8004820 <_scanf_chars+0x28>
 8004890:	6822      	ldr	r2, [r4, #0]
 8004892:	2310      	movs	r3, #16
 8004894:	0011      	movs	r1, r2
 8004896:	4019      	ands	r1, r3
 8004898:	421a      	tst	r2, r3
 800489a:	d106      	bne.n	80048aa <_scanf_chars+0xb2>
 800489c:	68e3      	ldr	r3, [r4, #12]
 800489e:	3301      	adds	r3, #1
 80048a0:	60e3      	str	r3, [r4, #12]
 80048a2:	69a3      	ldr	r3, [r4, #24]
 80048a4:	2b00      	cmp	r3, #0
 80048a6:	d000      	beq.n	80048aa <_scanf_chars+0xb2>
 80048a8:	7039      	strb	r1, [r7, #0]
 80048aa:	2000      	movs	r0, #0
 80048ac:	6923      	ldr	r3, [r4, #16]
 80048ae:	199b      	adds	r3, r3, r6
 80048b0:	6123      	str	r3, [r4, #16]
 80048b2:	bdfe      	pop	{r1, r2, r3, r4, r5, r6, r7, pc}
 80048b4:	08005519 	.word	0x08005519

080048b8 <_scanf_i>:
 80048b8:	b5f0      	push	{r4, r5, r6, r7, lr}
 80048ba:	b08b      	sub	sp, #44	@ 0x2c
 80048bc:	9301      	str	r3, [sp, #4]
 80048be:	4b78      	ldr	r3, [pc, #480]	@ (8004aa0 <_scanf_i+0x1e8>)
 80048c0:	0016      	movs	r6, r2
 80048c2:	9004      	str	r0, [sp, #16]
 80048c4:	aa07      	add	r2, sp, #28
 80048c6:	cba1      	ldmia	r3!, {r0, r5, r7}
 80048c8:	c2a1      	stmia	r2!, {r0, r5, r7}
 80048ca:	4a76      	ldr	r2, [pc, #472]	@ (8004aa4 <_scanf_i+0x1ec>)
 80048cc:	698b      	ldr	r3, [r1, #24]
 80048ce:	000c      	movs	r4, r1
 80048d0:	9205      	str	r2, [sp, #20]
 80048d2:	2b03      	cmp	r3, #3
 80048d4:	d101      	bne.n	80048da <_scanf_i+0x22>
 80048d6:	4b74      	ldr	r3, [pc, #464]	@ (8004aa8 <_scanf_i+0x1f0>)
 80048d8:	9305      	str	r3, [sp, #20]
 80048da:	22ae      	movs	r2, #174	@ 0xae
 80048dc:	2000      	movs	r0, #0
 80048de:	68a3      	ldr	r3, [r4, #8]
 80048e0:	0052      	lsls	r2, r2, #1
 80048e2:	1e59      	subs	r1, r3, #1
 80048e4:	9003      	str	r0, [sp, #12]
 80048e6:	4291      	cmp	r1, r2
 80048e8:	d905      	bls.n	80048f6 <_scanf_i+0x3e>
 80048ea:	3b5e      	subs	r3, #94	@ 0x5e
 80048ec:	3bff      	subs	r3, #255	@ 0xff
 80048ee:	9303      	str	r3, [sp, #12]
 80048f0:	235e      	movs	r3, #94	@ 0x5e
 80048f2:	33ff      	adds	r3, #255	@ 0xff
 80048f4:	60a3      	str	r3, [r4, #8]
 80048f6:	0023      	movs	r3, r4
 80048f8:	331c      	adds	r3, #28
 80048fa:	9300      	str	r3, [sp, #0]
 80048fc:	23d0      	movs	r3, #208	@ 0xd0
 80048fe:	2700      	movs	r7, #0
 8004900:	6822      	ldr	r2, [r4, #0]
 8004902:	011b      	lsls	r3, r3, #4
 8004904:	4313      	orrs	r3, r2
 8004906:	6023      	str	r3, [r4, #0]
 8004908:	9b00      	ldr	r3, [sp, #0]
 800490a:	9302      	str	r3, [sp, #8]
 800490c:	6833      	ldr	r3, [r6, #0]
 800490e:	a807      	add	r0, sp, #28
 8004910:	7819      	ldrb	r1, [r3, #0]
 8004912:	00bb      	lsls	r3, r7, #2
 8004914:	2202      	movs	r2, #2
 8004916:	5818      	ldr	r0, [r3, r0]
 8004918:	f000 f958 	bl	8004bcc <memchr>
 800491c:	2800      	cmp	r0, #0
 800491e:	d029      	beq.n	8004974 <_scanf_i+0xbc>
 8004920:	2f01      	cmp	r7, #1
 8004922:	d15e      	bne.n	80049e2 <_scanf_i+0x12a>
 8004924:	6863      	ldr	r3, [r4, #4]
 8004926:	2b00      	cmp	r3, #0
 8004928:	d106      	bne.n	8004938 <_scanf_i+0x80>
 800492a:	3308      	adds	r3, #8
 800492c:	6822      	ldr	r2, [r4, #0]
 800492e:	6063      	str	r3, [r4, #4]
 8004930:	33f9      	adds	r3, #249	@ 0xf9
 8004932:	33ff      	adds	r3, #255	@ 0xff
 8004934:	4313      	orrs	r3, r2
 8004936:	6023      	str	r3, [r4, #0]
 8004938:	6823      	ldr	r3, [r4, #0]
 800493a:	4a5c      	ldr	r2, [pc, #368]	@ (8004aac <_scanf_i+0x1f4>)
 800493c:	4013      	ands	r3, r2
 800493e:	6023      	str	r3, [r4, #0]
 8004940:	68a3      	ldr	r3, [r4, #8]
 8004942:	1e5a      	subs	r2, r3, #1
 8004944:	60a2      	str	r2, [r4, #8]
 8004946:	2b00      	cmp	r3, #0
 8004948:	d014      	beq.n	8004974 <_scanf_i+0xbc>
 800494a:	6833      	ldr	r3, [r6, #0]
 800494c:	1c5a      	adds	r2, r3, #1
 800494e:	6032      	str	r2, [r6, #0]
 8004950:	781b      	ldrb	r3, [r3, #0]
 8004952:	9a02      	ldr	r2, [sp, #8]
 8004954:	7013      	strb	r3, [r2, #0]
 8004956:	6873      	ldr	r3, [r6, #4]
 8004958:	1c55      	adds	r5, r2, #1
 800495a:	3b01      	subs	r3, #1
 800495c:	6073      	str	r3, [r6, #4]
 800495e:	2b00      	cmp	r3, #0
 8004960:	dc07      	bgt.n	8004972 <_scanf_i+0xba>
 8004962:	23c0      	movs	r3, #192	@ 0xc0
 8004964:	005b      	lsls	r3, r3, #1
 8004966:	0031      	movs	r1, r6
 8004968:	58e3      	ldr	r3, [r4, r3]
 800496a:	9804      	ldr	r0, [sp, #16]
 800496c:	4798      	blx	r3
 800496e:	2800      	cmp	r0, #0
 8004970:	d17e      	bne.n	8004a70 <_scanf_i+0x1b8>
 8004972:	9502      	str	r5, [sp, #8]
 8004974:	3701      	adds	r7, #1
 8004976:	2f03      	cmp	r7, #3
 8004978:	d1c8      	bne.n	800490c <_scanf_i+0x54>
 800497a:	6863      	ldr	r3, [r4, #4]
 800497c:	2b00      	cmp	r3, #0
 800497e:	d101      	bne.n	8004984 <_scanf_i+0xcc>
 8004980:	330a      	adds	r3, #10
 8004982:	6063      	str	r3, [r4, #4]
 8004984:	2700      	movs	r7, #0
 8004986:	6863      	ldr	r3, [r4, #4]
 8004988:	4949      	ldr	r1, [pc, #292]	@ (8004ab0 <_scanf_i+0x1f8>)
 800498a:	6960      	ldr	r0, [r4, #20]
 800498c:	1ac9      	subs	r1, r1, r3
 800498e:	f000 f893 	bl	8004ab8 <__sccl>
 8004992:	9d02      	ldr	r5, [sp, #8]
 8004994:	68a3      	ldr	r3, [r4, #8]
 8004996:	6820      	ldr	r0, [r4, #0]
 8004998:	9302      	str	r3, [sp, #8]
 800499a:	2b00      	cmp	r3, #0
 800499c:	d03f      	beq.n	8004a1e <_scanf_i+0x166>
 800499e:	6831      	ldr	r1, [r6, #0]
 80049a0:	6963      	ldr	r3, [r4, #20]
 80049a2:	780a      	ldrb	r2, [r1, #0]
 80049a4:	5c9b      	ldrb	r3, [r3, r2]
 80049a6:	2b00      	cmp	r3, #0
 80049a8:	d039      	beq.n	8004a1e <_scanf_i+0x166>
 80049aa:	2a30      	cmp	r2, #48	@ 0x30
 80049ac:	d128      	bne.n	8004a00 <_scanf_i+0x148>
 80049ae:	2380      	movs	r3, #128	@ 0x80
 80049b0:	011b      	lsls	r3, r3, #4
 80049b2:	4218      	tst	r0, r3
 80049b4:	d024      	beq.n	8004a00 <_scanf_i+0x148>
 80049b6:	9b03      	ldr	r3, [sp, #12]
 80049b8:	3701      	adds	r7, #1
 80049ba:	2b00      	cmp	r3, #0
 80049bc:	d005      	beq.n	80049ca <_scanf_i+0x112>
 80049be:	001a      	movs	r2, r3
 80049c0:	9b02      	ldr	r3, [sp, #8]
 80049c2:	3a01      	subs	r2, #1
 80049c4:	3301      	adds	r3, #1
 80049c6:	9203      	str	r2, [sp, #12]
 80049c8:	60a3      	str	r3, [r4, #8]
 80049ca:	6873      	ldr	r3, [r6, #4]
 80049cc:	3b01      	subs	r3, #1
 80049ce:	6073      	str	r3, [r6, #4]
 80049d0:	2b00      	cmp	r3, #0
 80049d2:	dd1c      	ble.n	8004a0e <_scanf_i+0x156>
 80049d4:	6833      	ldr	r3, [r6, #0]
 80049d6:	3301      	adds	r3, #1
 80049d8:	6033      	str	r3, [r6, #0]
 80049da:	68a3      	ldr	r3, [r4, #8]
 80049dc:	3b01      	subs	r3, #1
 80049de:	60a3      	str	r3, [r4, #8]
 80049e0:	e7d8      	b.n	8004994 <_scanf_i+0xdc>
 80049e2:	2f02      	cmp	r7, #2
 80049e4:	d1ac      	bne.n	8004940 <_scanf_i+0x88>
 80049e6:	23c0      	movs	r3, #192	@ 0xc0
 80049e8:	2180      	movs	r1, #128	@ 0x80
 80049ea:	6822      	ldr	r2, [r4, #0]
 80049ec:	00db      	lsls	r3, r3, #3
 80049ee:	4013      	ands	r3, r2
 80049f0:	0089      	lsls	r1, r1, #2
 80049f2:	428b      	cmp	r3, r1
 80049f4:	d1c1      	bne.n	800497a <_scanf_i+0xc2>
 80049f6:	2310      	movs	r3, #16
 80049f8:	6063      	str	r3, [r4, #4]
 80049fa:	33f0      	adds	r3, #240	@ 0xf0
 80049fc:	4313      	orrs	r3, r2
 80049fe:	e79e      	b.n	800493e <_scanf_i+0x86>
 8004a00:	4b2c      	ldr	r3, [pc, #176]	@ (8004ab4 <_scanf_i+0x1fc>)
 8004a02:	4003      	ands	r3, r0
 8004a04:	6023      	str	r3, [r4, #0]
 8004a06:	780b      	ldrb	r3, [r1, #0]
 8004a08:	702b      	strb	r3, [r5, #0]
 8004a0a:	3501      	adds	r5, #1
 8004a0c:	e7dd      	b.n	80049ca <_scanf_i+0x112>
 8004a0e:	23c0      	movs	r3, #192	@ 0xc0
 8004a10:	005b      	lsls	r3, r3, #1
 8004a12:	0031      	movs	r1, r6
 8004a14:	58e3      	ldr	r3, [r4, r3]
 8004a16:	9804      	ldr	r0, [sp, #16]
 8004a18:	4798      	blx	r3
 8004a1a:	2800      	cmp	r0, #0
 8004a1c:	d0dd      	beq.n	80049da <_scanf_i+0x122>
 8004a1e:	6823      	ldr	r3, [r4, #0]
 8004a20:	05db      	lsls	r3, r3, #23
 8004a22:	d50e      	bpl.n	8004a42 <_scanf_i+0x18a>
 8004a24:	9b00      	ldr	r3, [sp, #0]
 8004a26:	429d      	cmp	r5, r3
 8004a28:	d907      	bls.n	8004a3a <_scanf_i+0x182>
 8004a2a:	23be      	movs	r3, #190	@ 0xbe
 8004a2c:	3d01      	subs	r5, #1
 8004a2e:	005b      	lsls	r3, r3, #1
 8004a30:	0032      	movs	r2, r6
 8004a32:	7829      	ldrb	r1, [r5, #0]
 8004a34:	58e3      	ldr	r3, [r4, r3]
 8004a36:	9804      	ldr	r0, [sp, #16]
 8004a38:	4798      	blx	r3
 8004a3a:	9b00      	ldr	r3, [sp, #0]
 8004a3c:	2001      	movs	r0, #1
 8004a3e:	429d      	cmp	r5, r3
 8004a40:	d029      	beq.n	8004a96 <_scanf_i+0x1de>
 8004a42:	6821      	ldr	r1, [r4, #0]
 8004a44:	2310      	movs	r3, #16
 8004a46:	000a      	movs	r2, r1
 8004a48:	401a      	ands	r2, r3
 8004a4a:	4219      	tst	r1, r3
 8004a4c:	d11c      	bne.n	8004a88 <_scanf_i+0x1d0>
 8004a4e:	702a      	strb	r2, [r5, #0]
 8004a50:	6863      	ldr	r3, [r4, #4]
 8004a52:	9900      	ldr	r1, [sp, #0]
 8004a54:	9804      	ldr	r0, [sp, #16]
 8004a56:	9e05      	ldr	r6, [sp, #20]
 8004a58:	47b0      	blx	r6
 8004a5a:	9b01      	ldr	r3, [sp, #4]
 8004a5c:	6822      	ldr	r2, [r4, #0]
 8004a5e:	681b      	ldr	r3, [r3, #0]
 8004a60:	0691      	lsls	r1, r2, #26
 8004a62:	d507      	bpl.n	8004a74 <_scanf_i+0x1bc>
 8004a64:	9901      	ldr	r1, [sp, #4]
 8004a66:	1d1a      	adds	r2, r3, #4
 8004a68:	600a      	str	r2, [r1, #0]
 8004a6a:	681b      	ldr	r3, [r3, #0]
 8004a6c:	6018      	str	r0, [r3, #0]
 8004a6e:	e008      	b.n	8004a82 <_scanf_i+0x1ca>
 8004a70:	2700      	movs	r7, #0
 8004a72:	e7d4      	b.n	8004a1e <_scanf_i+0x166>
 8004a74:	1d19      	adds	r1, r3, #4
 8004a76:	07d6      	lsls	r6, r2, #31
 8004a78:	d50f      	bpl.n	8004a9a <_scanf_i+0x1e2>
 8004a7a:	9a01      	ldr	r2, [sp, #4]
 8004a7c:	6011      	str	r1, [r2, #0]
 8004a7e:	681b      	ldr	r3, [r3, #0]
 8004a80:	8018      	strh	r0, [r3, #0]
 8004a82:	68e3      	ldr	r3, [r4, #12]
 8004a84:	3301      	adds	r3, #1
 8004a86:	60e3      	str	r3, [r4, #12]
 8004a88:	2000      	movs	r0, #0
 8004a8a:	9b00      	ldr	r3, [sp, #0]
 8004a8c:	1aed      	subs	r5, r5, r3
 8004a8e:	6923      	ldr	r3, [r4, #16]
 8004a90:	19ed      	adds	r5, r5, r7
 8004a92:	195b      	adds	r3, r3, r5
 8004a94:	6123      	str	r3, [r4, #16]
 8004a96:	b00b      	add	sp, #44	@ 0x2c
 8004a98:	bdf0      	pop	{r4, r5, r6, r7, pc}
 8004a9a:	9a01      	ldr	r2, [sp, #4]
 8004a9c:	6011      	str	r1, [r2, #0]
 8004a9e:	e7e4      	b.n	8004a6a <_scanf_i+0x1b2>
 8004aa0:	08004e94 	.word	0x08004e94
 8004aa4:	08004e65 	.word	0x08004e65
 8004aa8:	08004d59 	.word	0x08004d59
 8004aac:	fffffaff 	.word	0xfffffaff
 8004ab0:	0800565c 	.word	0x0800565c
 8004ab4:	fffff6ff 	.word	0xfffff6ff

08004ab8 <__sccl>:
 8004ab8:	b570      	push	{r4, r5, r6, lr}
 8004aba:	780b      	ldrb	r3, [r1, #0]
 8004abc:	0004      	movs	r4, r0
 8004abe:	2b5e      	cmp	r3, #94	@ 0x5e
 8004ac0:	d019      	beq.n	8004af6 <__sccl+0x3e>
 8004ac2:	1c4d      	adds	r5, r1, #1
 8004ac4:	2100      	movs	r1, #0
 8004ac6:	0022      	movs	r2, r4
 8004ac8:	1c60      	adds	r0, r4, #1
 8004aca:	30ff      	adds	r0, #255	@ 0xff
 8004acc:	7011      	strb	r1, [r2, #0]
 8004ace:	3201      	adds	r2, #1
 8004ad0:	4282      	cmp	r2, r0
 8004ad2:	d1fb      	bne.n	8004acc <__sccl+0x14>
 8004ad4:	1e68      	subs	r0, r5, #1
 8004ad6:	2b00      	cmp	r3, #0
 8004ad8:	d026      	beq.n	8004b28 <__sccl+0x70>
 8004ada:	2601      	movs	r6, #1
 8004adc:	404e      	eors	r6, r1
 8004ade:	0028      	movs	r0, r5
 8004ae0:	54e6      	strb	r6, [r4, r3]
 8004ae2:	7801      	ldrb	r1, [r0, #0]
 8004ae4:	1c45      	adds	r5, r0, #1
 8004ae6:	292d      	cmp	r1, #45	@ 0x2d
 8004ae8:	d009      	beq.n	8004afe <__sccl+0x46>
 8004aea:	295d      	cmp	r1, #93	@ 0x5d
 8004aec:	d01b      	beq.n	8004b26 <__sccl+0x6e>
 8004aee:	2900      	cmp	r1, #0
 8004af0:	d01a      	beq.n	8004b28 <__sccl+0x70>
 8004af2:	000b      	movs	r3, r1
 8004af4:	e7f3      	b.n	8004ade <__sccl+0x26>
 8004af6:	784b      	ldrb	r3, [r1, #1]
 8004af8:	1c8d      	adds	r5, r1, #2
 8004afa:	2101      	movs	r1, #1
 8004afc:	e7e3      	b.n	8004ac6 <__sccl+0xe>
 8004afe:	7842      	ldrb	r2, [r0, #1]
 8004b00:	2a5d      	cmp	r2, #93	@ 0x5d
 8004b02:	d0f6      	beq.n	8004af2 <__sccl+0x3a>
 8004b04:	4293      	cmp	r3, r2
 8004b06:	dcf4      	bgt.n	8004af2 <__sccl+0x3a>
 8004b08:	0019      	movs	r1, r3
 8004b0a:	3002      	adds	r0, #2
 8004b0c:	3101      	adds	r1, #1
 8004b0e:	5466      	strb	r6, [r4, r1]
 8004b10:	428a      	cmp	r2, r1
 8004b12:	dcfb      	bgt.n	8004b0c <__sccl+0x54>
 8004b14:	1c59      	adds	r1, r3, #1
 8004b16:	4293      	cmp	r3, r2
 8004b18:	db02      	blt.n	8004b20 <__sccl+0x68>
 8004b1a:	2200      	movs	r2, #0
 8004b1c:	188b      	adds	r3, r1, r2
 8004b1e:	e7e0      	b.n	8004ae2 <__sccl+0x2a>
 8004b20:	1ad2      	subs	r2, r2, r3
 8004b22:	3a01      	subs	r2, #1
 8004b24:	e7fa      	b.n	8004b1c <__sccl+0x64>
 8004b26:	0028      	movs	r0, r5
 8004b28:	bd70      	pop	{r4, r5, r6, pc}
	...

08004b2c <__submore>:
 8004b2c:	000b      	movs	r3, r1
 8004b2e:	b5f7      	push	{r0, r1, r2, r4, r5, r6, r7, lr}
 8004b30:	6b4d      	ldr	r5, [r1, #52]	@ 0x34
 8004b32:	3344      	adds	r3, #68	@ 0x44
 8004b34:	000c      	movs	r4, r1
 8004b36:	429d      	cmp	r5, r3
 8004b38:	d11c      	bne.n	8004b74 <__submore+0x48>
 8004b3a:	2680      	movs	r6, #128	@ 0x80
 8004b3c:	00f6      	lsls	r6, r6, #3
 8004b3e:	0031      	movs	r1, r6
 8004b40:	f7ff f840 	bl	8003bc4 <_malloc_r>
 8004b44:	2800      	cmp	r0, #0
 8004b46:	d102      	bne.n	8004b4e <__submore+0x22>
 8004b48:	2001      	movs	r0, #1
 8004b4a:	4240      	negs	r0, r0
 8004b4c:	bdfe      	pop	{r1, r2, r3, r4, r5, r6, r7, pc}
 8004b4e:	0023      	movs	r3, r4
 8004b50:	6360      	str	r0, [r4, #52]	@ 0x34
 8004b52:	63a6      	str	r6, [r4, #56]	@ 0x38
 8004b54:	3346      	adds	r3, #70	@ 0x46
 8004b56:	781a      	ldrb	r2, [r3, #0]
 8004b58:	4b10      	ldr	r3, [pc, #64]	@ (8004b9c <__submore+0x70>)
 8004b5a:	54c2      	strb	r2, [r0, r3]
 8004b5c:	0023      	movs	r3, r4
 8004b5e:	3345      	adds	r3, #69	@ 0x45
 8004b60:	781a      	ldrb	r2, [r3, #0]
 8004b62:	4b0f      	ldr	r3, [pc, #60]	@ (8004ba0 <__submore+0x74>)
 8004b64:	54c2      	strb	r2, [r0, r3]
 8004b66:	782a      	ldrb	r2, [r5, #0]
 8004b68:	4b0e      	ldr	r3, [pc, #56]	@ (8004ba4 <__submore+0x78>)
 8004b6a:	54c2      	strb	r2, [r0, r3]
 8004b6c:	18c0      	adds	r0, r0, r3
 8004b6e:	6020      	str	r0, [r4, #0]
 8004b70:	2000      	movs	r0, #0
 8004b72:	e7eb      	b.n	8004b4c <__submore+0x20>
 8004b74:	6b8e      	ldr	r6, [r1, #56]	@ 0x38
 8004b76:	0029      	movs	r1, r5
 8004b78:	0073      	lsls	r3, r6, #1
 8004b7a:	001a      	movs	r2, r3
 8004b7c:	9301      	str	r3, [sp, #4]
 8004b7e:	f000 f830 	bl	8004be2 <_realloc_r>
 8004b82:	1e05      	subs	r5, r0, #0
 8004b84:	d0e0      	beq.n	8004b48 <__submore+0x1c>
 8004b86:	1987      	adds	r7, r0, r6
 8004b88:	0001      	movs	r1, r0
 8004b8a:	0032      	movs	r2, r6
 8004b8c:	0038      	movs	r0, r7
 8004b8e:	f7ff f945 	bl	8003e1c <memcpy>
 8004b92:	9b01      	ldr	r3, [sp, #4]
 8004b94:	6027      	str	r7, [r4, #0]
 8004b96:	6365      	str	r5, [r4, #52]	@ 0x34
 8004b98:	63a3      	str	r3, [r4, #56]	@ 0x38
 8004b9a:	e7e9      	b.n	8004b70 <__submore+0x44>
 8004b9c:	000003ff 	.word	0x000003ff
 8004ba0:	000003fe 	.word	0x000003fe
 8004ba4:	000003fd 	.word	0x000003fd

08004ba8 <memmove>:
 8004ba8:	b510      	push	{r4, lr}
 8004baa:	4288      	cmp	r0, r1
 8004bac:	d902      	bls.n	8004bb4 <memmove+0xc>
 8004bae:	188b      	adds	r3, r1, r2
 8004bb0:	4298      	cmp	r0, r3
 8004bb2:	d308      	bcc.n	8004bc6 <memmove+0x1e>
 8004bb4:	2300      	movs	r3, #0
 8004bb6:	429a      	cmp	r2, r3
 8004bb8:	d007      	beq.n	8004bca <memmove+0x22>
 8004bba:	5ccc      	ldrb	r4, [r1, r3]
 8004bbc:	54c4      	strb	r4, [r0, r3]
 8004bbe:	3301      	adds	r3, #1
 8004bc0:	e7f9      	b.n	8004bb6 <memmove+0xe>
 8004bc2:	5c8b      	ldrb	r3, [r1, r2]
 8004bc4:	5483      	strb	r3, [r0, r2]
 8004bc6:	3a01      	subs	r2, #1
 8004bc8:	d2fb      	bcs.n	8004bc2 <memmove+0x1a>
 8004bca:	bd10      	pop	{r4, pc}

08004bcc <memchr>:
 8004bcc:	b2c9      	uxtb	r1, r1
 8004bce:	1882      	adds	r2, r0, r2
 8004bd0:	4290      	cmp	r0, r2
 8004bd2:	d101      	bne.n	8004bd8 <memchr+0xc>
 8004bd4:	2000      	movs	r0, #0
 8004bd6:	4770      	bx	lr
 8004bd8:	7803      	ldrb	r3, [r0, #0]
 8004bda:	428b      	cmp	r3, r1
 8004bdc:	d0fb      	beq.n	8004bd6 <memchr+0xa>
 8004bde:	3001      	adds	r0, #1
 8004be0:	e7f6      	b.n	8004bd0 <memchr+0x4>

08004be2 <_realloc_r>:
 8004be2:	b5f7      	push	{r0, r1, r2, r4, r5, r6, r7, lr}
 8004be4:	0006      	movs	r6, r0
 8004be6:	000c      	movs	r4, r1
 8004be8:	0015      	movs	r5, r2
 8004bea:	2900      	cmp	r1, #0
 8004bec:	d105      	bne.n	8004bfa <_realloc_r+0x18>
 8004bee:	0011      	movs	r1, r2
 8004bf0:	f7fe ffe8 	bl	8003bc4 <_malloc_r>
 8004bf4:	0004      	movs	r4, r0
 8004bf6:	0020      	movs	r0, r4
 8004bf8:	bdfe      	pop	{r1, r2, r3, r4, r5, r6, r7, pc}
 8004bfa:	2a00      	cmp	r2, #0
 8004bfc:	d103      	bne.n	8004c06 <_realloc_r+0x24>
 8004bfe:	f7ff f917 	bl	8003e30 <_free_r>
 8004c02:	002c      	movs	r4, r5
 8004c04:	e7f7      	b.n	8004bf6 <_realloc_r+0x14>
 8004c06:	f000 f931 	bl	8004e6c <_malloc_usable_size_r>
 8004c0a:	0007      	movs	r7, r0
 8004c0c:	4285      	cmp	r5, r0
 8004c0e:	d802      	bhi.n	8004c16 <_realloc_r+0x34>
 8004c10:	0843      	lsrs	r3, r0, #1
 8004c12:	42ab      	cmp	r3, r5
 8004c14:	d3ef      	bcc.n	8004bf6 <_realloc_r+0x14>
 8004c16:	0029      	movs	r1, r5
 8004c18:	0030      	movs	r0, r6
 8004c1a:	f7fe ffd3 	bl	8003bc4 <_malloc_r>
 8004c1e:	9001      	str	r0, [sp, #4]
 8004c20:	2800      	cmp	r0, #0
 8004c22:	d101      	bne.n	8004c28 <_realloc_r+0x46>
 8004c24:	9c01      	ldr	r4, [sp, #4]
 8004c26:	e7e6      	b.n	8004bf6 <_realloc_r+0x14>
 8004c28:	002a      	movs	r2, r5
 8004c2a:	42bd      	cmp	r5, r7
 8004c2c:	d900      	bls.n	8004c30 <_realloc_r+0x4e>
 8004c2e:	003a      	movs	r2, r7
 8004c30:	0021      	movs	r1, r4
 8004c32:	9801      	ldr	r0, [sp, #4]
 8004c34:	f7ff f8f2 	bl	8003e1c <memcpy>
 8004c38:	0021      	movs	r1, r4
 8004c3a:	0030      	movs	r0, r6
 8004c3c:	f7ff f8f8 	bl	8003e30 <_free_r>
 8004c40:	e7f0      	b.n	8004c24 <_realloc_r+0x42>
	...

08004c44 <_strtol_l.isra.0>:
 8004c44:	b5f0      	push	{r4, r5, r6, r7, lr}
 8004c46:	b085      	sub	sp, #20
 8004c48:	0017      	movs	r7, r2
 8004c4a:	001e      	movs	r6, r3
 8004c4c:	9003      	str	r0, [sp, #12]
 8004c4e:	9101      	str	r1, [sp, #4]
 8004c50:	2b24      	cmp	r3, #36	@ 0x24
 8004c52:	d823      	bhi.n	8004c9c <_strtol_l.isra.0+0x58>
 8004c54:	000c      	movs	r4, r1
 8004c56:	2b01      	cmp	r3, #1
 8004c58:	d020      	beq.n	8004c9c <_strtol_l.isra.0+0x58>
 8004c5a:	4b3d      	ldr	r3, [pc, #244]	@ (8004d50 <_strtol_l.isra.0+0x10c>)
 8004c5c:	2208      	movs	r2, #8
 8004c5e:	469c      	mov	ip, r3
 8004c60:	0023      	movs	r3, r4
 8004c62:	4661      	mov	r1, ip
 8004c64:	781d      	ldrb	r5, [r3, #0]
 8004c66:	3401      	adds	r4, #1
 8004c68:	5d48      	ldrb	r0, [r1, r5]
 8004c6a:	0001      	movs	r1, r0
 8004c6c:	4011      	ands	r1, r2
 8004c6e:	4210      	tst	r0, r2
 8004c70:	d1f6      	bne.n	8004c60 <_strtol_l.isra.0+0x1c>
 8004c72:	2d2d      	cmp	r5, #45	@ 0x2d
 8004c74:	d119      	bne.n	8004caa <_strtol_l.isra.0+0x66>
 8004c76:	7825      	ldrb	r5, [r4, #0]
 8004c78:	1c9c      	adds	r4, r3, #2
 8004c7a:	2301      	movs	r3, #1
 8004c7c:	9300      	str	r3, [sp, #0]
 8004c7e:	2210      	movs	r2, #16
 8004c80:	0033      	movs	r3, r6
 8004c82:	4393      	bics	r3, r2
 8004c84:	d11d      	bne.n	8004cc2 <_strtol_l.isra.0+0x7e>
 8004c86:	2d30      	cmp	r5, #48	@ 0x30
 8004c88:	d115      	bne.n	8004cb6 <_strtol_l.isra.0+0x72>
 8004c8a:	2120      	movs	r1, #32
 8004c8c:	7823      	ldrb	r3, [r4, #0]
 8004c8e:	438b      	bics	r3, r1
 8004c90:	2b58      	cmp	r3, #88	@ 0x58
 8004c92:	d110      	bne.n	8004cb6 <_strtol_l.isra.0+0x72>
 8004c94:	7865      	ldrb	r5, [r4, #1]
 8004c96:	3402      	adds	r4, #2
 8004c98:	2610      	movs	r6, #16
 8004c9a:	e012      	b.n	8004cc2 <_strtol_l.isra.0+0x7e>
 8004c9c:	f7ff f88a 	bl	8003db4 <__errno>
 8004ca0:	2316      	movs	r3, #22
 8004ca2:	6003      	str	r3, [r0, #0]
 8004ca4:	2000      	movs	r0, #0
 8004ca6:	b005      	add	sp, #20
 8004ca8:	bdf0      	pop	{r4, r5, r6, r7, pc}
 8004caa:	9100      	str	r1, [sp, #0]
 8004cac:	2d2b      	cmp	r5, #43	@ 0x2b
 8004cae:	d1e6      	bne.n	8004c7e <_strtol_l.isra.0+0x3a>
 8004cb0:	7825      	ldrb	r5, [r4, #0]
 8004cb2:	1c9c      	adds	r4, r3, #2
 8004cb4:	e7e3      	b.n	8004c7e <_strtol_l.isra.0+0x3a>
 8004cb6:	2e00      	cmp	r6, #0
 8004cb8:	d1ee      	bne.n	8004c98 <_strtol_l.isra.0+0x54>
 8004cba:	360a      	adds	r6, #10
 8004cbc:	2d30      	cmp	r5, #48	@ 0x30
 8004cbe:	d100      	bne.n	8004cc2 <_strtol_l.isra.0+0x7e>
 8004cc0:	3e02      	subs	r6, #2
 8004cc2:	4a24      	ldr	r2, [pc, #144]	@ (8004d54 <_strtol_l.isra.0+0x110>)
 8004cc4:	9b00      	ldr	r3, [sp, #0]
 8004cc6:	4694      	mov	ip, r2
 8004cc8:	4463      	add	r3, ip
 8004cca:	0031      	movs	r1, r6
 8004ccc:	0018      	movs	r0, r3
 8004cce:	9302      	str	r3, [sp, #8]
 8004cd0:	f7fb fb10 	bl	80002f4 <__aeabi_uidivmod>
 8004cd4:	2200      	movs	r2, #0
 8004cd6:	4684      	mov	ip, r0
 8004cd8:	0010      	movs	r0, r2
 8004cda:	002b      	movs	r3, r5
 8004cdc:	3b30      	subs	r3, #48	@ 0x30
 8004cde:	2b09      	cmp	r3, #9
 8004ce0:	d811      	bhi.n	8004d06 <_strtol_l.isra.0+0xc2>
 8004ce2:	001d      	movs	r5, r3
 8004ce4:	42ae      	cmp	r6, r5
 8004ce6:	dd1d      	ble.n	8004d24 <_strtol_l.isra.0+0xe0>
 8004ce8:	1c53      	adds	r3, r2, #1
 8004cea:	d009      	beq.n	8004d00 <_strtol_l.isra.0+0xbc>
 8004cec:	2201      	movs	r2, #1
 8004cee:	4252      	negs	r2, r2
 8004cf0:	4584      	cmp	ip, r0
 8004cf2:	d305      	bcc.n	8004d00 <_strtol_l.isra.0+0xbc>
 8004cf4:	d101      	bne.n	8004cfa <_strtol_l.isra.0+0xb6>
 8004cf6:	42a9      	cmp	r1, r5
 8004cf8:	db11      	blt.n	8004d1e <_strtol_l.isra.0+0xda>
 8004cfa:	2201      	movs	r2, #1
 8004cfc:	4370      	muls	r0, r6
 8004cfe:	1828      	adds	r0, r5, r0
 8004d00:	7825      	ldrb	r5, [r4, #0]
 8004d02:	3401      	adds	r4, #1
 8004d04:	e7e9      	b.n	8004cda <_strtol_l.isra.0+0x96>
 8004d06:	002b      	movs	r3, r5
 8004d08:	3b41      	subs	r3, #65	@ 0x41
 8004d0a:	2b19      	cmp	r3, #25
 8004d0c:	d801      	bhi.n	8004d12 <_strtol_l.isra.0+0xce>
 8004d0e:	3d37      	subs	r5, #55	@ 0x37
 8004d10:	e7e8      	b.n	8004ce4 <_strtol_l.isra.0+0xa0>
 8004d12:	002b      	movs	r3, r5
 8004d14:	3b61      	subs	r3, #97	@ 0x61
 8004d16:	2b19      	cmp	r3, #25
 8004d18:	d804      	bhi.n	8004d24 <_strtol_l.isra.0+0xe0>
 8004d1a:	3d57      	subs	r5, #87	@ 0x57
 8004d1c:	e7e2      	b.n	8004ce4 <_strtol_l.isra.0+0xa0>
 8004d1e:	2201      	movs	r2, #1
 8004d20:	4252      	negs	r2, r2
 8004d22:	e7ed      	b.n	8004d00 <_strtol_l.isra.0+0xbc>
 8004d24:	1c53      	adds	r3, r2, #1
 8004d26:	d108      	bne.n	8004d3a <_strtol_l.isra.0+0xf6>
 8004d28:	2322      	movs	r3, #34	@ 0x22
 8004d2a:	9a03      	ldr	r2, [sp, #12]
 8004d2c:	9802      	ldr	r0, [sp, #8]
 8004d2e:	6013      	str	r3, [r2, #0]
 8004d30:	2f00      	cmp	r7, #0
 8004d32:	d0b8      	beq.n	8004ca6 <_strtol_l.isra.0+0x62>
 8004d34:	1e63      	subs	r3, r4, #1
 8004d36:	9301      	str	r3, [sp, #4]
 8004d38:	e007      	b.n	8004d4a <_strtol_l.isra.0+0x106>
 8004d3a:	9b00      	ldr	r3, [sp, #0]
 8004d3c:	2b00      	cmp	r3, #0
 8004d3e:	d000      	beq.n	8004d42 <_strtol_l.isra.0+0xfe>
 8004d40:	4240      	negs	r0, r0
 8004d42:	2f00      	cmp	r7, #0
 8004d44:	d0af      	beq.n	8004ca6 <_strtol_l.isra.0+0x62>
 8004d46:	2a00      	cmp	r2, #0
 8004d48:	d1f4      	bne.n	8004d34 <_strtol_l.isra.0+0xf0>
 8004d4a:	9b01      	ldr	r3, [sp, #4]
 8004d4c:	603b      	str	r3, [r7, #0]
 8004d4e:	e7aa      	b.n	8004ca6 <_strtol_l.isra.0+0x62>
 8004d50:	08005519 	.word	0x08005519
 8004d54:	7fffffff 	.word	0x7fffffff

08004d58 <_strtol_r>:
 8004d58:	b510      	push	{r4, lr}
 8004d5a:	f7ff ff73 	bl	8004c44 <_strtol_l.isra.0>
 8004d5e:	bd10      	pop	{r4, pc}

08004d60 <_strtoul_l.isra.0>:
 8004d60:	b5f0      	push	{r4, r5, r6, r7, lr}
 8004d62:	001e      	movs	r6, r3
 8004d64:	4b3e      	ldr	r3, [pc, #248]	@ (8004e60 <_strtoul_l.isra.0+0x100>)
 8004d66:	0017      	movs	r7, r2
 8004d68:	000c      	movs	r4, r1
 8004d6a:	469c      	mov	ip, r3
 8004d6c:	2208      	movs	r2, #8
 8004d6e:	b085      	sub	sp, #20
 8004d70:	9003      	str	r0, [sp, #12]
 8004d72:	9100      	str	r1, [sp, #0]
 8004d74:	0023      	movs	r3, r4
 8004d76:	4661      	mov	r1, ip
 8004d78:	781d      	ldrb	r5, [r3, #0]
 8004d7a:	3401      	adds	r4, #1
 8004d7c:	5d48      	ldrb	r0, [r1, r5]
 8004d7e:	0001      	movs	r1, r0
 8004d80:	4011      	ands	r1, r2
 8004d82:	4210      	tst	r0, r2
 8004d84:	d1f6      	bne.n	8004d74 <_strtoul_l.isra.0+0x14>
 8004d86:	2d2d      	cmp	r5, #45	@ 0x2d
 8004d88:	d112      	bne.n	8004db0 <_strtoul_l.isra.0+0x50>
 8004d8a:	7825      	ldrb	r5, [r4, #0]
 8004d8c:	1c9c      	adds	r4, r3, #2
 8004d8e:	2301      	movs	r3, #1
 8004d90:	9302      	str	r3, [sp, #8]
 8004d92:	2210      	movs	r2, #16
 8004d94:	0033      	movs	r3, r6
 8004d96:	4393      	bics	r3, r2
 8004d98:	d116      	bne.n	8004dc8 <_strtoul_l.isra.0+0x68>
 8004d9a:	2d30      	cmp	r5, #48	@ 0x30
 8004d9c:	d10e      	bne.n	8004dbc <_strtoul_l.isra.0+0x5c>
 8004d9e:	2120      	movs	r1, #32
 8004da0:	7823      	ldrb	r3, [r4, #0]
 8004da2:	438b      	bics	r3, r1
 8004da4:	2b58      	cmp	r3, #88	@ 0x58
 8004da6:	d109      	bne.n	8004dbc <_strtoul_l.isra.0+0x5c>
 8004da8:	7865      	ldrb	r5, [r4, #1]
 8004daa:	3402      	adds	r4, #2
 8004dac:	2610      	movs	r6, #16
 8004dae:	e00b      	b.n	8004dc8 <_strtoul_l.isra.0+0x68>
 8004db0:	9102      	str	r1, [sp, #8]
 8004db2:	2d2b      	cmp	r5, #43	@ 0x2b
 8004db4:	d1ed      	bne.n	8004d92 <_strtoul_l.isra.0+0x32>
 8004db6:	7825      	ldrb	r5, [r4, #0]
 8004db8:	1c9c      	adds	r4, r3, #2
 8004dba:	e7ea      	b.n	8004d92 <_strtoul_l.isra.0+0x32>
 8004dbc:	2e00      	cmp	r6, #0
 8004dbe:	d1f5      	bne.n	8004dac <_strtoul_l.isra.0+0x4c>
 8004dc0:	360a      	adds	r6, #10
 8004dc2:	2d30      	cmp	r5, #48	@ 0x30
 8004dc4:	d100      	bne.n	8004dc8 <_strtoul_l.isra.0+0x68>
 8004dc6:	3e02      	subs	r6, #2
 8004dc8:	2001      	movs	r0, #1
 8004dca:	0031      	movs	r1, r6
 8004dcc:	4240      	negs	r0, r0
 8004dce:	f7fb fa0b 	bl	80001e8 <__udivsi3>
 8004dd2:	9001      	str	r0, [sp, #4]
 8004dd4:	2001      	movs	r0, #1
 8004dd6:	0031      	movs	r1, r6
 8004dd8:	4240      	negs	r0, r0
 8004dda:	f7fb fa8b 	bl	80002f4 <__aeabi_uidivmod>
 8004dde:	2300      	movs	r3, #0
 8004de0:	2201      	movs	r2, #1
 8004de2:	0018      	movs	r0, r3
 8004de4:	4694      	mov	ip, r2
 8004de6:	002a      	movs	r2, r5
 8004de8:	3a30      	subs	r2, #48	@ 0x30
 8004dea:	2a09      	cmp	r2, #9
 8004dec:	d812      	bhi.n	8004e14 <_strtoul_l.isra.0+0xb4>
 8004dee:	0015      	movs	r5, r2
 8004df0:	42ae      	cmp	r6, r5
 8004df2:	dd1e      	ble.n	8004e32 <_strtoul_l.isra.0+0xd2>
 8004df4:	1c5a      	adds	r2, r3, #1
 8004df6:	d00a      	beq.n	8004e0e <_strtoul_l.isra.0+0xae>
 8004df8:	2301      	movs	r3, #1
 8004dfa:	9a01      	ldr	r2, [sp, #4]
 8004dfc:	425b      	negs	r3, r3
 8004dfe:	4282      	cmp	r2, r0
 8004e00:	d305      	bcc.n	8004e0e <_strtoul_l.isra.0+0xae>
 8004e02:	d101      	bne.n	8004e08 <_strtoul_l.isra.0+0xa8>
 8004e04:	42a9      	cmp	r1, r5
 8004e06:	db11      	blt.n	8004e2c <_strtoul_l.isra.0+0xcc>
 8004e08:	4663      	mov	r3, ip
 8004e0a:	4370      	muls	r0, r6
 8004e0c:	1828      	adds	r0, r5, r0
 8004e0e:	7825      	ldrb	r5, [r4, #0]
 8004e10:	3401      	adds	r4, #1
 8004e12:	e7e8      	b.n	8004de6 <_strtoul_l.isra.0+0x86>
 8004e14:	002a      	movs	r2, r5
 8004e16:	3a41      	subs	r2, #65	@ 0x41
 8004e18:	2a19      	cmp	r2, #25
 8004e1a:	d801      	bhi.n	8004e20 <_strtoul_l.isra.0+0xc0>
 8004e1c:	3d37      	subs	r5, #55	@ 0x37
 8004e1e:	e7e7      	b.n	8004df0 <_strtoul_l.isra.0+0x90>
 8004e20:	002a      	movs	r2, r5
 8004e22:	3a61      	subs	r2, #97	@ 0x61
 8004e24:	2a19      	cmp	r2, #25
 8004e26:	d804      	bhi.n	8004e32 <_strtoul_l.isra.0+0xd2>
 8004e28:	3d57      	subs	r5, #87	@ 0x57
 8004e2a:	e7e1      	b.n	8004df0 <_strtoul_l.isra.0+0x90>
 8004e2c:	2301      	movs	r3, #1
 8004e2e:	425b      	negs	r3, r3
 8004e30:	e7ed      	b.n	8004e0e <_strtoul_l.isra.0+0xae>
 8004e32:	1c5a      	adds	r2, r3, #1
 8004e34:	d107      	bne.n	8004e46 <_strtoul_l.isra.0+0xe6>
 8004e36:	2222      	movs	r2, #34	@ 0x22
 8004e38:	9903      	ldr	r1, [sp, #12]
 8004e3a:	0018      	movs	r0, r3
 8004e3c:	600a      	str	r2, [r1, #0]
 8004e3e:	2f00      	cmp	r7, #0
 8004e40:	d109      	bne.n	8004e56 <_strtoul_l.isra.0+0xf6>
 8004e42:	b005      	add	sp, #20
 8004e44:	bdf0      	pop	{r4, r5, r6, r7, pc}
 8004e46:	9a02      	ldr	r2, [sp, #8]
 8004e48:	2a00      	cmp	r2, #0
 8004e4a:	d000      	beq.n	8004e4e <_strtoul_l.isra.0+0xee>
 8004e4c:	4240      	negs	r0, r0
 8004e4e:	2f00      	cmp	r7, #0
 8004e50:	d0f7      	beq.n	8004e42 <_strtoul_l.isra.0+0xe2>
 8004e52:	2b00      	cmp	r3, #0
 8004e54:	d001      	beq.n	8004e5a <_strtoul_l.isra.0+0xfa>
 8004e56:	1e63      	subs	r3, r4, #1
 8004e58:	9300      	str	r3, [sp, #0]
 8004e5a:	9b00      	ldr	r3, [sp, #0]
 8004e5c:	603b      	str	r3, [r7, #0]
 8004e5e:	e7f0      	b.n	8004e42 <_strtoul_l.isra.0+0xe2>
 8004e60:	08005519 	.word	0x08005519

08004e64 <_strtoul_r>:
 8004e64:	b510      	push	{r4, lr}
 8004e66:	f7ff ff7b 	bl	8004d60 <_strtoul_l.isra.0>
 8004e6a:	bd10      	pop	{r4, pc}

08004e6c <_malloc_usable_size_r>:
 8004e6c:	1f0b      	subs	r3, r1, #4
 8004e6e:	681b      	ldr	r3, [r3, #0]
 8004e70:	1f18      	subs	r0, r3, #4
 8004e72:	2b00      	cmp	r3, #0
 8004e74:	da01      	bge.n	8004e7a <_malloc_usable_size_r+0xe>
 8004e76:	580b      	ldr	r3, [r1, r0]
 8004e78:	18c0      	adds	r0, r0, r3
 8004e7a:	4770      	bx	lr

08004e7c <_init>:
 8004e7c:	b5f8      	push	{r3, r4, r5, r6, r7, lr}
 8004e7e:	46c0      	nop			@ (mov r8, r8)
 8004e80:	bcf8      	pop	{r3, r4, r5, r6, r7}
 8004e82:	bc08      	pop	{r3}
 8004e84:	469e      	mov	lr, r3
 8004e86:	4770      	bx	lr

08004e88 <_fini>:
 8004e88:	b5f8      	push	{r3, r4, r5, r6, r7, lr}
 8004e8a:	46c0      	nop			@ (mov r8, r8)
 8004e8c:	bcf8      	pop	{r3, r4, r5, r6, r7}
 8004e8e:	bc08      	pop	{r3}
 8004e90:	469e      	mov	lr, r3
 8004e92:	4770      	bx	lr
